(lp1
(dp2
S'n_neighbors'
p3
I7
sS'metric'
p4
cnumpy.core.multiarray
scalar
p5
(cnumpy
dtype
p6
(S'S9'
I0
I1
tRp7
(I3
S'|'
NNNI9
I1
I0
tbS'chebyshev'
tRp8
sS'weights'
p9
g5
(g6
(S'S8'
I0
I1
tRp10
(I3
S'|'
NNNI8
I1
I0
tbS'distance'
tRp11
sS'leaf_size'
p12
I16
sS'algorithm'
p13
g5
(g6
(S'S7'
I0
I1
tRp14
(I3
S'|'
NNNI7
I1
I0
tbS'kd_tree'
tRp15
sa(dp16
S'n_neighbors'
p17
I6
sS'metric'
p18
g5
(g6
(S'S9'
I0
I1
tRp19
(I3
S'|'
NNNI9
I1
I0
tbS'chebyshev'
tRp20
sS'weights'
p21
g5
(g6
(S'S8'
I0
I1
tRp22
(I3
S'|'
NNNI8
I1
I0
tbS'distance'
tRp23
sS'leaf_size'
p24
I21
sS'algorithm'
p25
g5
(g6
(S'S7'
I0
I1
tRp26
(I3
S'|'
NNNI7
I1
I0
tbS'kd_tree'
tRp27
sa(dp28
S'n_neighbors'
p29
I11
sS'metric'
p30
g5
(g6
(S'S9'
I0
I1
tRp31
(I3
S'|'
NNNI9
I1
I0
tbS'chebyshev'
tRp32
sS'weights'
p33
g5
(g6
(S'S8'
I0
I1
tRp34
(I3
S'|'
NNNI8
I1
I0
tbS'distance'
tRp35
sS'leaf_size'
p36
I27
sS'algorithm'
p37
g5
(g6
(S'S7'
I0
I1
tRp38
(I3
S'|'
NNNI7
I1
I0
tbS'kd_tree'
tRp39
sa(dp40
S'n_neighbors'
p41
I8
sS'metric'
p42
g5
(g6
(S'S9'
I0
I1
tRp43
(I3
S'|'
NNNI9
I1
I0
tbS'chebyshev'
tRp44
sS'weights'
p45
g5
(g6
(S'S8'
I0
I1
tRp46
(I3
S'|'
NNNI8
I1
I0
tbS'distance'
tRp47
sS'leaf_size'
p48
I44
sS'algorithm'
p49
g5
(g6
(S'S7'
I0
I1
tRp50
(I3
S'|'
NNNI7
I1
I0
tbS'kd_tree'
tRp51
sa(dp52
S'n_neighbors'
p53
I1
sS'metric'
p54
g5
(g6
(S'S9'
I0
I1
tRp55
(I3
S'|'
NNNI9
I1
I0
tbS'chebyshev'
tRp56
sS'weights'
p57
g5
(g6
(S'S8'
I0
I1
tRp58
(I3
S'|'
NNNI8
I1
I0
tbS'distance'
tRp59
sS'leaf_size'
p60
I22
sS'algorithm'
p61
g5
(g6
(S'S7'
I0
I1
tRp62
(I3
S'|'
NNNI7
I1
I0
tbS'kd_tree'
tRp63
sa(dp64
S'n_neighbors'
p65
I8
sS'metric'
p66
g5
(g6
(S'S9'
I0
I1
tRp67
(I3
S'|'
NNNI9
I1
I0
tbS'chebyshev'
tRp68
sS'weights'
p69
g5
(g6
(S'S8'
I0
I1
tRp70
(I3
S'|'
NNNI8
I1
I0
tbS'distance'
tRp71
sS'leaf_size'
p72
I17
sS'algorithm'
p73
g5
(g6
(S'S7'
I0
I1
tRp74
(I3
S'|'
NNNI7
I1
I0
tbS'kd_tree'
tRp75
sa(dp76
S'n_neighbors'
p77
I10
sS'metric'
p78
g5
(g6
(S'S9'
I0
I1
tRp79
(I3
S'|'
NNNI9
I1
I0
tbS'chebyshev'
tRp80
sS'weights'
p81
g5
(g6
(S'S8'
I0
I1
tRp82
(I3
S'|'
NNNI8
I1
I0
tbS'distance'
tRp83
sS'leaf_size'
p84
I42
sS'algorithm'
p85
g5
(g6
(S'S7'
I0
I1
tRp86
(I3
S'|'
NNNI7
I1
I0
tbS'kd_tree'
tRp87
sa(dp88
S'n_neighbors'
p89
I4
sS'metric'
p90
g5
(g6
(S'S9'
I0
I1
tRp91
(I3
S'|'
NNNI9
I1
I0
tbS'chebyshev'
tRp92
sS'weights'
p93
g5
(g6
(S'S8'
I0
I1
tRp94
(I3
S'|'
NNNI8
I1
I0
tbS'distance'
tRp95
sS'leaf_size'
p96
I30
sS'algorithm'
p97
g5
(g6
(S'S7'
I0
I1
tRp98
(I3
S'|'
NNNI7
I1
I0
tbS'kd_tree'
tRp99
sa(dp100
S'n_neighbors'
p101
I10
sS'metric'
p102
g5
(g6
(S'S9'
I0
I1
tRp103
(I3
S'|'
NNNI9
I1
I0
tbS'chebyshev'
tRp104
sS'weights'
p105
g5
(g6
(S'S8'
I0
I1
tRp106
(I3
S'|'
NNNI8
I1
I0
tbS'distance'
tRp107
sS'leaf_size'
p108
I41
sS'algorithm'
p109
g5
(g6
(S'S7'
I0
I1
tRp110
(I3
S'|'
NNNI7
I1
I0
tbS'kd_tree'
tRp111
sa(dp112
S'n_neighbors'
p113
I1
sS'metric'
p114
g5
(g6
(S'S9'
I0
I1
tRp115
(I3
S'|'
NNNI9
I1
I0
tbS'chebyshev'
tRp116
sS'weights'
p117
g5
(g6
(S'S8'
I0
I1
tRp118
(I3
S'|'
NNNI8
I1
I0
tbS'distance'
tRp119
sS'leaf_size'
p120
I20
sS'algorithm'
p121
g5
(g6
(S'S7'
I0
I1
tRp122
(I3
S'|'
NNNI7
I1
I0
tbS'kd_tree'
tRp123
sa(dp124
S'n_neighbors'
p125
I4
sS'metric'
p126
g5
(g6
(S'S9'
I0
I1
tRp127
(I3
S'|'
NNNI9
I1
I0
tbS'euclidean'
tRp128
sS'weights'
p129
g5
(g6
(S'S8'
I0
I1
tRp130
(I3
S'|'
NNNI8
I1
I0
tbS'distance'
tRp131
sS'leaf_size'
p132
I24
sS'algorithm'
p133
g5
(g6
(S'S7'
I0
I1
tRp134
(I3
S'|'
NNNI7
I1
I0
tbS'kd_tree'
tRp135
sa(dp136
S'n_neighbors'
p137
I1
sS'metric'
p138
g5
(g6
(S'S9'
I0
I1
tRp139
(I3
S'|'
NNNI9
I1
I0
tbS'euclidean'
tRp140
sS'weights'
p141
g5
(g6
(S'S8'
I0
I1
tRp142
(I3
S'|'
NNNI8
I1
I0
tbS'distance'
tRp143
sS'leaf_size'
p144
I32
sS'algorithm'
p145
g5
(g6
(S'S7'
I0
I1
tRp146
(I3
S'|'
NNNI7
I1
I0
tbS'kd_tree'
tRp147
sa(dp148
S'n_neighbors'
p149
I12
sS'metric'
p150
g5
(g6
(S'S9'
I0
I1
tRp151
(I3
S'|'
NNNI9
I1
I0
tbS'euclidean'
tRp152
sS'weights'
p153
g5
(g6
(S'S8'
I0
I1
tRp154
(I3
S'|'
NNNI8
I1
I0
tbS'distance'
tRp155
sS'leaf_size'
p156
I40
sS'algorithm'
p157
g5
(g6
(S'S7'
I0
I1
tRp158
(I3
S'|'
NNNI7
I1
I0
tbS'kd_tree'
tRp159
sa(dp160
S'n_neighbors'
p161
I8
sS'metric'
p162
g5
(g6
(S'S9'
I0
I1
tRp163
(I3
S'|'
NNNI9
I1
I0
tbS'euclidean'
tRp164
sS'weights'
p165
g5
(g6
(S'S8'
I0
I1
tRp166
(I3
S'|'
NNNI8
I1
I0
tbS'distance'
tRp167
sS'leaf_size'
p168
I33
sS'algorithm'
p169
g5
(g6
(S'S7'
I0
I1
tRp170
(I3
S'|'
NNNI7
I1
I0
tbS'kd_tree'
tRp171
sa(dp172
S'n_neighbors'
p173
I5
sS'metric'
p174
g5
(g6
(S'S9'
I0
I1
tRp175
(I3
S'|'
NNNI9
I1
I0
tbS'euclidean'
tRp176
sS'weights'
p177
g5
(g6
(S'S8'
I0
I1
tRp178
(I3
S'|'
NNNI8
I1
I0
tbS'distance'
tRp179
sS'leaf_size'
p180
I17
sS'algorithm'
p181
g5
(g6
(S'S7'
I0
I1
tRp182
(I3
S'|'
NNNI7
I1
I0
tbS'kd_tree'
tRp183
sa(dp184
S'n_neighbors'
p185
I3
sS'metric'
p186
g5
(g6
(S'S9'
I0
I1
tRp187
(I3
S'|'
NNNI9
I1
I0
tbS'euclidean'
tRp188
sS'weights'
p189
g5
(g6
(S'S8'
I0
I1
tRp190
(I3
S'|'
NNNI8
I1
I0
tbS'distance'
tRp191
sS'leaf_size'
p192
I19
sS'algorithm'
p193
g5
(g6
(S'S7'
I0
I1
tRp194
(I3
S'|'
NNNI7
I1
I0
tbS'kd_tree'
tRp195
sa(dp196
S'n_neighbors'
p197
I7
sS'metric'
p198
g5
(g6
(S'S9'
I0
I1
tRp199
(I3
S'|'
NNNI9
I1
I0
tbS'euclidean'
tRp200
sS'weights'
p201
g5
(g6
(S'S8'
I0
I1
tRp202
(I3
S'|'
NNNI8
I1
I0
tbS'distance'
tRp203
sS'leaf_size'
p204
I18
sS'algorithm'
p205
g5
(g6
(S'S7'
I0
I1
tRp206
(I3
S'|'
NNNI7
I1
I0
tbS'kd_tree'
tRp207
sa(dp208
S'n_neighbors'
p209
I10
sS'metric'
p210
g5
(g6
(S'S9'
I0
I1
tRp211
(I3
S'|'
NNNI9
I1
I0
tbS'euclidean'
tRp212
sS'weights'
p213
g5
(g6
(S'S8'
I0
I1
tRp214
(I3
S'|'
NNNI8
I1
I0
tbS'distance'
tRp215
sS'leaf_size'
p216
I41
sS'algorithm'
p217
g5
(g6
(S'S7'
I0
I1
tRp218
(I3
S'|'
NNNI7
I1
I0
tbS'kd_tree'
tRp219
sa(dp220
S'n_neighbors'
p221
I6
sS'metric'
p222
g5
(g6
(S'S9'
I0
I1
tRp223
(I3
S'|'
NNNI9
I1
I0
tbS'euclidean'
tRp224
sS'weights'
p225
g5
(g6
(S'S8'
I0
I1
tRp226
(I3
S'|'
NNNI8
I1
I0
tbS'distance'
tRp227
sS'leaf_size'
p228
I45
sS'algorithm'
p229
g5
(g6
(S'S7'
I0
I1
tRp230
(I3
S'|'
NNNI7
I1
I0
tbS'kd_tree'
tRp231
sa(dp232
S'n_neighbors'
p233
I9
sS'metric'
p234
g5
(g6
(S'S9'
I0
I1
tRp235
(I3
S'|'
NNNI9
I1
I0
tbS'euclidean'
tRp236
sS'weights'
p237
g5
(g6
(S'S8'
I0
I1
tRp238
(I3
S'|'
NNNI8
I1
I0
tbS'distance'
tRp239
sS'leaf_size'
p240
I29
sS'algorithm'
p241
g5
(g6
(S'S7'
I0
I1
tRp242
(I3
S'|'
NNNI7
I1
I0
tbS'kd_tree'
tRp243
sa(dp244
S'n_neighbors'
p245
I8
sS'metric'
p246
g5
(g6
(S'S9'
I0
I1
tRp247
(I3
S'|'
NNNI9
I1
I0
tbS'manhattan'
tRp248
sS'weights'
p249
g5
(g6
(S'S8'
I0
I1
tRp250
(I3
S'|'
NNNI8
I1
I0
tbS'distance'
tRp251
sS'leaf_size'
p252
I40
sS'algorithm'
p253
g5
(g6
(S'S7'
I0
I1
tRp254
(I3
S'|'
NNNI7
I1
I0
tbS'kd_tree'
tRp255
sa(dp256
S'n_neighbors'
p257
I2
sS'metric'
p258
g5
(g6
(S'S9'
I0
I1
tRp259
(I3
S'|'
NNNI9
I1
I0
tbS'manhattan'
tRp260
sS'weights'
p261
g5
(g6
(S'S8'
I0
I1
tRp262
(I3
S'|'
NNNI8
I1
I0
tbS'distance'
tRp263
sS'leaf_size'
p264
I20
sS'algorithm'
p265
g5
(g6
(S'S7'
I0
I1
tRp266
(I3
S'|'
NNNI7
I1
I0
tbS'kd_tree'
tRp267
sa(dp268
S'n_neighbors'
p269
I4
sS'metric'
p270
g5
(g6
(S'S9'
I0
I1
tRp271
(I3
S'|'
NNNI9
I1
I0
tbS'manhattan'
tRp272
sS'weights'
p273
g5
(g6
(S'S8'
I0
I1
tRp274
(I3
S'|'
NNNI8
I1
I0
tbS'distance'
tRp275
sS'leaf_size'
p276
I44
sS'algorithm'
p277
g5
(g6
(S'S7'
I0
I1
tRp278
(I3
S'|'
NNNI7
I1
I0
tbS'kd_tree'
tRp279
sa(dp280
S'n_neighbors'
p281
I11
sS'metric'
p282
g5
(g6
(S'S9'
I0
I1
tRp283
(I3
S'|'
NNNI9
I1
I0
tbS'manhattan'
tRp284
sS'weights'
p285
g5
(g6
(S'S8'
I0
I1
tRp286
(I3
S'|'
NNNI8
I1
I0
tbS'distance'
tRp287
sS'leaf_size'
p288
I32
sS'algorithm'
p289
g5
(g6
(S'S7'
I0
I1
tRp290
(I3
S'|'
NNNI7
I1
I0
tbS'kd_tree'
tRp291
sa(dp292
S'n_neighbors'
p293
I9
sS'metric'
p294
g5
(g6
(S'S9'
I0
I1
tRp295
(I3
S'|'
NNNI9
I1
I0
tbS'manhattan'
tRp296
sS'weights'
p297
g5
(g6
(S'S8'
I0
I1
tRp298
(I3
S'|'
NNNI8
I1
I0
tbS'distance'
tRp299
sS'leaf_size'
p300
I39
sS'algorithm'
p301
g5
(g6
(S'S7'
I0
I1
tRp302
(I3
S'|'
NNNI7
I1
I0
tbS'kd_tree'
tRp303
sa(dp304
S'n_neighbors'
p305
I7
sS'metric'
p306
g5
(g6
(S'S9'
I0
I1
tRp307
(I3
S'|'
NNNI9
I1
I0
tbS'manhattan'
tRp308
sS'weights'
p309
g5
(g6
(S'S8'
I0
I1
tRp310
(I3
S'|'
NNNI8
I1
I0
tbS'distance'
tRp311
sS'leaf_size'
p312
I42
sS'algorithm'
p313
g5
(g6
(S'S7'
I0
I1
tRp314
(I3
S'|'
NNNI7
I1
I0
tbS'kd_tree'
tRp315
sa(dp316
S'n_neighbors'
p317
I5
sS'metric'
p318
g5
(g6
(S'S9'
I0
I1
tRp319
(I3
S'|'
NNNI9
I1
I0
tbS'manhattan'
tRp320
sS'weights'
p321
g5
(g6
(S'S8'
I0
I1
tRp322
(I3
S'|'
NNNI8
I1
I0
tbS'distance'
tRp323
sS'leaf_size'
p324
I42
sS'algorithm'
p325
g5
(g6
(S'S7'
I0
I1
tRp326
(I3
S'|'
NNNI7
I1
I0
tbS'kd_tree'
tRp327
sa(dp328
S'n_neighbors'
p329
I5
sS'metric'
p330
g5
(g6
(S'S9'
I0
I1
tRp331
(I3
S'|'
NNNI9
I1
I0
tbS'manhattan'
tRp332
sS'weights'
p333
g5
(g6
(S'S8'
I0
I1
tRp334
(I3
S'|'
NNNI8
I1
I0
tbS'distance'
tRp335
sS'leaf_size'
p336
I18
sS'algorithm'
p337
g5
(g6
(S'S7'
I0
I1
tRp338
(I3
S'|'
NNNI7
I1
I0
tbS'kd_tree'
tRp339
sa(dp340
S'n_neighbors'
p341
I3
sS'metric'
p342
g5
(g6
(S'S9'
I0
I1
tRp343
(I3
S'|'
NNNI9
I1
I0
tbS'manhattan'
tRp344
sS'weights'
p345
g5
(g6
(S'S8'
I0
I1
tRp346
(I3
S'|'
NNNI8
I1
I0
tbS'distance'
tRp347
sS'leaf_size'
p348
I32
sS'algorithm'
p349
g5
(g6
(S'S7'
I0
I1
tRp350
(I3
S'|'
NNNI7
I1
I0
tbS'kd_tree'
tRp351
sa(dp352
S'n_neighbors'
p353
I10
sS'metric'
p354
g5
(g6
(S'S9'
I0
I1
tRp355
(I3
S'|'
NNNI9
I1
I0
tbS'manhattan'
tRp356
sS'weights'
p357
g5
(g6
(S'S8'
I0
I1
tRp358
(I3
S'|'
NNNI8
I1
I0
tbS'distance'
tRp359
sS'leaf_size'
p360
I27
sS'algorithm'
p361
g5
(g6
(S'S7'
I0
I1
tRp362
(I3
S'|'
NNNI7
I1
I0
tbS'kd_tree'
tRp363
sa(dp364
S'n_neighbors'
p365
I3
sS'algorithm'
p366
g5
(g6
(S'S7'
I0
I1
tRp367
(I3
S'|'
NNNI7
I1
I0
tbS'kd_tree'
tRp368
sS'metric'
p369
g5
(g6
(S'S9'
I0
I1
tRp370
(I3
S'|'
NNNI9
I1
I0
tbS'minkowski'
tRp371
sS'p'
I4
sS'weights'
p372
g5
(g6
(S'S8'
I0
I1
tRp373
(I3
S'|'
NNNI8
I1
I0
tbS'distance'
tRp374
sS'leaf_size'
p375
I36
sa(dp376
S'n_neighbors'
p377
I12
sS'algorithm'
p378
g5
(g6
(S'S7'
I0
I1
tRp379
(I3
S'|'
NNNI7
I1
I0
tbS'kd_tree'
tRp380
sS'metric'
p381
g5
(g6
(S'S9'
I0
I1
tRp382
(I3
S'|'
NNNI9
I1
I0
tbS'minkowski'
tRp383
sS'p'
I4
sS'weights'
p384
g5
(g6
(S'S8'
I0
I1
tRp385
(I3
S'|'
NNNI8
I1
I0
tbS'distance'
tRp386
sS'leaf_size'
p387
I26
sa(dp388
S'n_neighbors'
p389
I10
sS'algorithm'
p390
g5
(g6
(S'S7'
I0
I1
tRp391
(I3
S'|'
NNNI7
I1
I0
tbS'kd_tree'
tRp392
sS'metric'
p393
g5
(g6
(S'S9'
I0
I1
tRp394
(I3
S'|'
NNNI9
I1
I0
tbS'minkowski'
tRp395
sS'p'
I2
sS'weights'
p396
g5
(g6
(S'S8'
I0
I1
tRp397
(I3
S'|'
NNNI8
I1
I0
tbS'distance'
tRp398
sS'leaf_size'
p399
I38
sa(dp400
S'n_neighbors'
p401
I1
sS'algorithm'
p402
g5
(g6
(S'S7'
I0
I1
tRp403
(I3
S'|'
NNNI7
I1
I0
tbS'kd_tree'
tRp404
sS'metric'
p405
g5
(g6
(S'S9'
I0
I1
tRp406
(I3
S'|'
NNNI9
I1
I0
tbS'minkowski'
tRp407
sS'p'
I2
sS'weights'
p408
g5
(g6
(S'S8'
I0
I1
tRp409
(I3
S'|'
NNNI8
I1
I0
tbS'distance'
tRp410
sS'leaf_size'
p411
I39
sa(dp412
S'n_neighbors'
p413
I11
sS'algorithm'
p414
g5
(g6
(S'S7'
I0
I1
tRp415
(I3
S'|'
NNNI7
I1
I0
tbS'kd_tree'
tRp416
sS'metric'
p417
g5
(g6
(S'S9'
I0
I1
tRp418
(I3
S'|'
NNNI9
I1
I0
tbS'minkowski'
tRp419
sS'p'
I12
sS'weights'
p420
g5
(g6
(S'S8'
I0
I1
tRp421
(I3
S'|'
NNNI8
I1
I0
tbS'distance'
tRp422
sS'leaf_size'
p423
I32
sa(dp424
S'n_neighbors'
p425
I5
sS'algorithm'
p426
g5
(g6
(S'S7'
I0
I1
tRp427
(I3
S'|'
NNNI7
I1
I0
tbS'kd_tree'
tRp428
sS'metric'
p429
g5
(g6
(S'S9'
I0
I1
tRp430
(I3
S'|'
NNNI9
I1
I0
tbS'minkowski'
tRp431
sS'p'
I3
sS'weights'
p432
g5
(g6
(S'S8'
I0
I1
tRp433
(I3
S'|'
NNNI8
I1
I0
tbS'distance'
tRp434
sS'leaf_size'
p435
I43
sa(dp436
S'n_neighbors'
p437
I11
sS'algorithm'
p438
g5
(g6
(S'S7'
I0
I1
tRp439
(I3
S'|'
NNNI7
I1
I0
tbS'kd_tree'
tRp440
sS'metric'
p441
g5
(g6
(S'S9'
I0
I1
tRp442
(I3
S'|'
NNNI9
I1
I0
tbS'minkowski'
tRp443
sS'p'
I5
sS'weights'
p444
g5
(g6
(S'S8'
I0
I1
tRp445
(I3
S'|'
NNNI8
I1
I0
tbS'distance'
tRp446
sS'leaf_size'
p447
I32
sa(dp448
S'n_neighbors'
p449
I5
sS'algorithm'
p450
g5
(g6
(S'S7'
I0
I1
tRp451
(I3
S'|'
NNNI7
I1
I0
tbS'kd_tree'
tRp452
sS'metric'
p453
g5
(g6
(S'S9'
I0
I1
tRp454
(I3
S'|'
NNNI9
I1
I0
tbS'minkowski'
tRp455
sS'p'
I1
sS'weights'
p456
g5
(g6
(S'S8'
I0
I1
tRp457
(I3
S'|'
NNNI8
I1
I0
tbS'distance'
tRp458
sS'leaf_size'
p459
I43
sa(dp460
S'n_neighbors'
p461
I3
sS'algorithm'
p462
g5
(g6
(S'S7'
I0
I1
tRp463
(I3
S'|'
NNNI7
I1
I0
tbS'kd_tree'
tRp464
sS'metric'
p465
g5
(g6
(S'S9'
I0
I1
tRp466
(I3
S'|'
NNNI9
I1
I0
tbS'minkowski'
tRp467
sS'p'
I20
sS'weights'
p468
g5
(g6
(S'S8'
I0
I1
tRp469
(I3
S'|'
NNNI8
I1
I0
tbS'distance'
tRp470
sS'leaf_size'
p471
I44
sa(dp472
S'n_neighbors'
p473
I10
sS'algorithm'
p474
g5
(g6
(S'S7'
I0
I1
tRp475
(I3
S'|'
NNNI7
I1
I0
tbS'kd_tree'
tRp476
sS'metric'
p477
g5
(g6
(S'S9'
I0
I1
tRp478
(I3
S'|'
NNNI9
I1
I0
tbS'minkowski'
tRp479
sS'p'
I12
sS'weights'
p480
g5
(g6
(S'S8'
I0
I1
tRp481
(I3
S'|'
NNNI8
I1
I0
tbS'distance'
tRp482
sS'leaf_size'
p483
I21
sa(dp484
S'n_neighbors'
p485
I5
sS'metric'
p486
g5
(g6
(S'S9'
I0
I1
tRp487
(I3
S'|'
NNNI9
I1
I0
tbS'chebyshev'
tRp488
sS'weights'
p489
g5
(g6
(S'S7'
I0
I1
tRp490
(I3
S'|'
NNNI7
I1
I0
tbS'uniform'
tRp491
sS'leaf_size'
p492
I38
sS'algorithm'
p493
g5
(g6
(S'S7'
I0
I1
tRp494
(I3
S'|'
NNNI7
I1
I0
tbS'kd_tree'
tRp495
sa(dp496
S'n_neighbors'
p497
I9
sS'metric'
p498
g5
(g6
(S'S9'
I0
I1
tRp499
(I3
S'|'
NNNI9
I1
I0
tbS'chebyshev'
tRp500
sS'weights'
p501
g5
(g6
(S'S7'
I0
I1
tRp502
(I3
S'|'
NNNI7
I1
I0
tbS'uniform'
tRp503
sS'leaf_size'
p504
I19
sS'algorithm'
p505
g5
(g6
(S'S7'
I0
I1
tRp506
(I3
S'|'
NNNI7
I1
I0
tbS'kd_tree'
tRp507
sa(dp508
S'n_neighbors'
p509
I2
sS'metric'
p510
g5
(g6
(S'S9'
I0
I1
tRp511
(I3
S'|'
NNNI9
I1
I0
tbS'chebyshev'
tRp512
sS'weights'
p513
g5
(g6
(S'S7'
I0
I1
tRp514
(I3
S'|'
NNNI7
I1
I0
tbS'uniform'
tRp515
sS'leaf_size'
p516
I42
sS'algorithm'
p517
g5
(g6
(S'S7'
I0
I1
tRp518
(I3
S'|'
NNNI7
I1
I0
tbS'kd_tree'
tRp519
sa(dp520
S'n_neighbors'
p521
I4
sS'metric'
p522
g5
(g6
(S'S9'
I0
I1
tRp523
(I3
S'|'
NNNI9
I1
I0
tbS'chebyshev'
tRp524
sS'weights'
p525
g5
(g6
(S'S7'
I0
I1
tRp526
(I3
S'|'
NNNI7
I1
I0
tbS'uniform'
tRp527
sS'leaf_size'
p528
I18
sS'algorithm'
p529
g5
(g6
(S'S7'
I0
I1
tRp530
(I3
S'|'
NNNI7
I1
I0
tbS'kd_tree'
tRp531
sa(dp532
S'n_neighbors'
p533
I3
sS'metric'
p534
g5
(g6
(S'S9'
I0
I1
tRp535
(I3
S'|'
NNNI9
I1
I0
tbS'chebyshev'
tRp536
sS'weights'
p537
g5
(g6
(S'S7'
I0
I1
tRp538
(I3
S'|'
NNNI7
I1
I0
tbS'uniform'
tRp539
sS'leaf_size'
p540
I20
sS'algorithm'
p541
g5
(g6
(S'S7'
I0
I1
tRp542
(I3
S'|'
NNNI7
I1
I0
tbS'kd_tree'
tRp543
sa(dp544
S'n_neighbors'
p545
I11
sS'metric'
p546
g5
(g6
(S'S9'
I0
I1
tRp547
(I3
S'|'
NNNI9
I1
I0
tbS'chebyshev'
tRp548
sS'weights'
p549
g5
(g6
(S'S7'
I0
I1
tRp550
(I3
S'|'
NNNI7
I1
I0
tbS'uniform'
tRp551
sS'leaf_size'
p552
I44
sS'algorithm'
p553
g5
(g6
(S'S7'
I0
I1
tRp554
(I3
S'|'
NNNI7
I1
I0
tbS'kd_tree'
tRp555
sa(dp556
S'n_neighbors'
p557
I2
sS'metric'
p558
g5
(g6
(S'S9'
I0
I1
tRp559
(I3
S'|'
NNNI9
I1
I0
tbS'chebyshev'
tRp560
sS'weights'
p561
g5
(g6
(S'S7'
I0
I1
tRp562
(I3
S'|'
NNNI7
I1
I0
tbS'uniform'
tRp563
sS'leaf_size'
p564
I23
sS'algorithm'
p565
g5
(g6
(S'S7'
I0
I1
tRp566
(I3
S'|'
NNNI7
I1
I0
tbS'kd_tree'
tRp567
sa(dp568
S'n_neighbors'
p569
I8
sS'metric'
p570
g5
(g6
(S'S9'
I0
I1
tRp571
(I3
S'|'
NNNI9
I1
I0
tbS'chebyshev'
tRp572
sS'weights'
p573
g5
(g6
(S'S7'
I0
I1
tRp574
(I3
S'|'
NNNI7
I1
I0
tbS'uniform'
tRp575
sS'leaf_size'
p576
I44
sS'algorithm'
p577
g5
(g6
(S'S7'
I0
I1
tRp578
(I3
S'|'
NNNI7
I1
I0
tbS'kd_tree'
tRp579
sa(dp580
S'n_neighbors'
p581
I8
sS'metric'
p582
g5
(g6
(S'S9'
I0
I1
tRp583
(I3
S'|'
NNNI9
I1
I0
tbS'chebyshev'
tRp584
sS'weights'
p585
g5
(g6
(S'S7'
I0
I1
tRp586
(I3
S'|'
NNNI7
I1
I0
tbS'uniform'
tRp587
sS'leaf_size'
p588
I16
sS'algorithm'
p589
g5
(g6
(S'S7'
I0
I1
tRp590
(I3
S'|'
NNNI7
I1
I0
tbS'kd_tree'
tRp591
sa(dp592
S'n_neighbors'
p593
I7
sS'metric'
p594
g5
(g6
(S'S9'
I0
I1
tRp595
(I3
S'|'
NNNI9
I1
I0
tbS'chebyshev'
tRp596
sS'weights'
p597
g5
(g6
(S'S7'
I0
I1
tRp598
(I3
S'|'
NNNI7
I1
I0
tbS'uniform'
tRp599
sS'leaf_size'
p600
I43
sS'algorithm'
p601
g5
(g6
(S'S7'
I0
I1
tRp602
(I3
S'|'
NNNI7
I1
I0
tbS'kd_tree'
tRp603
sa(dp604
S'n_neighbors'
p605
I3
sS'metric'
p606
g5
(g6
(S'S9'
I0
I1
tRp607
(I3
S'|'
NNNI9
I1
I0
tbS'euclidean'
tRp608
sS'weights'
p609
g5
(g6
(S'S7'
I0
I1
tRp610
(I3
S'|'
NNNI7
I1
I0
tbS'uniform'
tRp611
sS'leaf_size'
p612
I42
sS'algorithm'
p613
g5
(g6
(S'S7'
I0
I1
tRp614
(I3
S'|'
NNNI7
I1
I0
tbS'kd_tree'
tRp615
sa(dp616
S'n_neighbors'
p617
I2
sS'metric'
p618
g5
(g6
(S'S9'
I0
I1
tRp619
(I3
S'|'
NNNI9
I1
I0
tbS'euclidean'
tRp620
sS'weights'
p621
g5
(g6
(S'S7'
I0
I1
tRp622
(I3
S'|'
NNNI7
I1
I0
tbS'uniform'
tRp623
sS'leaf_size'
p624
I38
sS'algorithm'
p625
g5
(g6
(S'S7'
I0
I1
tRp626
(I3
S'|'
NNNI7
I1
I0
tbS'kd_tree'
tRp627
sa(dp628
S'n_neighbors'
p629
I12
sS'metric'
p630
g5
(g6
(S'S9'
I0
I1
tRp631
(I3
S'|'
NNNI9
I1
I0
tbS'euclidean'
tRp632
sS'weights'
p633
g5
(g6
(S'S7'
I0
I1
tRp634
(I3
S'|'
NNNI7
I1
I0
tbS'uniform'
tRp635
sS'leaf_size'
p636
I39
sS'algorithm'
p637
g5
(g6
(S'S7'
I0
I1
tRp638
(I3
S'|'
NNNI7
I1
I0
tbS'kd_tree'
tRp639
sa(dp640
S'n_neighbors'
p641
I5
sS'metric'
p642
g5
(g6
(S'S9'
I0
I1
tRp643
(I3
S'|'
NNNI9
I1
I0
tbS'euclidean'
tRp644
sS'weights'
p645
g5
(g6
(S'S7'
I0
I1
tRp646
(I3
S'|'
NNNI7
I1
I0
tbS'uniform'
tRp647
sS'leaf_size'
p648
I22
sS'algorithm'
p649
g5
(g6
(S'S7'
I0
I1
tRp650
(I3
S'|'
NNNI7
I1
I0
tbS'kd_tree'
tRp651
sa(dp652
S'n_neighbors'
p653
I6
sS'metric'
p654
g5
(g6
(S'S9'
I0
I1
tRp655
(I3
S'|'
NNNI9
I1
I0
tbS'euclidean'
tRp656
sS'weights'
p657
g5
(g6
(S'S7'
I0
I1
tRp658
(I3
S'|'
NNNI7
I1
I0
tbS'uniform'
tRp659
sS'leaf_size'
p660
I34
sS'algorithm'
p661
g5
(g6
(S'S7'
I0
I1
tRp662
(I3
S'|'
NNNI7
I1
I0
tbS'kd_tree'
tRp663
sa(dp664
S'n_neighbors'
p665
I11
sS'metric'
p666
g5
(g6
(S'S9'
I0
I1
tRp667
(I3
S'|'
NNNI9
I1
I0
tbS'euclidean'
tRp668
sS'weights'
p669
g5
(g6
(S'S7'
I0
I1
tRp670
(I3
S'|'
NNNI7
I1
I0
tbS'uniform'
tRp671
sS'leaf_size'
p672
I31
sS'algorithm'
p673
g5
(g6
(S'S7'
I0
I1
tRp674
(I3
S'|'
NNNI7
I1
I0
tbS'kd_tree'
tRp675
sa(dp676
S'n_neighbors'
p677
I10
sS'metric'
p678
g5
(g6
(S'S9'
I0
I1
tRp679
(I3
S'|'
NNNI9
I1
I0
tbS'euclidean'
tRp680
sS'weights'
p681
g5
(g6
(S'S7'
I0
I1
tRp682
(I3
S'|'
NNNI7
I1
I0
tbS'uniform'
tRp683
sS'leaf_size'
p684
I43
sS'algorithm'
p685
g5
(g6
(S'S7'
I0
I1
tRp686
(I3
S'|'
NNNI7
I1
I0
tbS'kd_tree'
tRp687
sa(dp688
S'n_neighbors'
p689
I8
sS'metric'
p690
g5
(g6
(S'S9'
I0
I1
tRp691
(I3
S'|'
NNNI9
I1
I0
tbS'euclidean'
tRp692
sS'weights'
p693
g5
(g6
(S'S7'
I0
I1
tRp694
(I3
S'|'
NNNI7
I1
I0
tbS'uniform'
tRp695
sS'leaf_size'
p696
I45
sS'algorithm'
p697
g5
(g6
(S'S7'
I0
I1
tRp698
(I3
S'|'
NNNI7
I1
I0
tbS'kd_tree'
tRp699
sa(dp700
S'n_neighbors'
p701
I9
sS'metric'
p702
g5
(g6
(S'S9'
I0
I1
tRp703
(I3
S'|'
NNNI9
I1
I0
tbS'euclidean'
tRp704
sS'weights'
p705
g5
(g6
(S'S7'
I0
I1
tRp706
(I3
S'|'
NNNI7
I1
I0
tbS'uniform'
tRp707
sS'leaf_size'
p708
I16
sS'algorithm'
p709
g5
(g6
(S'S7'
I0
I1
tRp710
(I3
S'|'
NNNI7
I1
I0
tbS'kd_tree'
tRp711
sa(dp712
S'n_neighbors'
p713
I7
sS'metric'
p714
g5
(g6
(S'S9'
I0
I1
tRp715
(I3
S'|'
NNNI9
I1
I0
tbS'euclidean'
tRp716
sS'weights'
p717
g5
(g6
(S'S7'
I0
I1
tRp718
(I3
S'|'
NNNI7
I1
I0
tbS'uniform'
tRp719
sS'leaf_size'
p720
I37
sS'algorithm'
p721
g5
(g6
(S'S7'
I0
I1
tRp722
(I3
S'|'
NNNI7
I1
I0
tbS'kd_tree'
tRp723
sa(dp724
S'n_neighbors'
p725
I7
sS'metric'
p726
g5
(g6
(S'S9'
I0
I1
tRp727
(I3
S'|'
NNNI9
I1
I0
tbS'manhattan'
tRp728
sS'weights'
p729
g5
(g6
(S'S7'
I0
I1
tRp730
(I3
S'|'
NNNI7
I1
I0
tbS'uniform'
tRp731
sS'leaf_size'
p732
I42
sS'algorithm'
p733
g5
(g6
(S'S7'
I0
I1
tRp734
(I3
S'|'
NNNI7
I1
I0
tbS'kd_tree'
tRp735
sa(dp736
S'n_neighbors'
p737
I8
sS'metric'
p738
g5
(g6
(S'S9'
I0
I1
tRp739
(I3
S'|'
NNNI9
I1
I0
tbS'manhattan'
tRp740
sS'weights'
p741
g5
(g6
(S'S7'
I0
I1
tRp742
(I3
S'|'
NNNI7
I1
I0
tbS'uniform'
tRp743
sS'leaf_size'
p744
I29
sS'algorithm'
p745
g5
(g6
(S'S7'
I0
I1
tRp746
(I3
S'|'
NNNI7
I1
I0
tbS'kd_tree'
tRp747
sa(dp748
S'n_neighbors'
p749
I12
sS'metric'
p750
g5
(g6
(S'S9'
I0
I1
tRp751
(I3
S'|'
NNNI9
I1
I0
tbS'manhattan'
tRp752
sS'weights'
p753
g5
(g6
(S'S7'
I0
I1
tRp754
(I3
S'|'
NNNI7
I1
I0
tbS'uniform'
tRp755
sS'leaf_size'
p756
I34
sS'algorithm'
p757
g5
(g6
(S'S7'
I0
I1
tRp758
(I3
S'|'
NNNI7
I1
I0
tbS'kd_tree'
tRp759
sa(dp760
S'n_neighbors'
p761
I11
sS'metric'
p762
g5
(g6
(S'S9'
I0
I1
tRp763
(I3
S'|'
NNNI9
I1
I0
tbS'manhattan'
tRp764
sS'weights'
p765
g5
(g6
(S'S7'
I0
I1
tRp766
(I3
S'|'
NNNI7
I1
I0
tbS'uniform'
tRp767
sS'leaf_size'
p768
I40
sS'algorithm'
p769
g5
(g6
(S'S7'
I0
I1
tRp770
(I3
S'|'
NNNI7
I1
I0
tbS'kd_tree'
tRp771
sa(dp772
S'n_neighbors'
p773
I4
sS'metric'
p774
g5
(g6
(S'S9'
I0
I1
tRp775
(I3
S'|'
NNNI9
I1
I0
tbS'manhattan'
tRp776
sS'weights'
p777
g5
(g6
(S'S7'
I0
I1
tRp778
(I3
S'|'
NNNI7
I1
I0
tbS'uniform'
tRp779
sS'leaf_size'
p780
I33
sS'algorithm'
p781
g5
(g6
(S'S7'
I0
I1
tRp782
(I3
S'|'
NNNI7
I1
I0
tbS'kd_tree'
tRp783
sa(dp784
S'n_neighbors'
p785
I9
sS'metric'
p786
g5
(g6
(S'S9'
I0
I1
tRp787
(I3
S'|'
NNNI9
I1
I0
tbS'manhattan'
tRp788
sS'weights'
p789
g5
(g6
(S'S7'
I0
I1
tRp790
(I3
S'|'
NNNI7
I1
I0
tbS'uniform'
tRp791
sS'leaf_size'
p792
I29
sS'algorithm'
p793
g5
(g6
(S'S7'
I0
I1
tRp794
(I3
S'|'
NNNI7
I1
I0
tbS'kd_tree'
tRp795
sa(dp796
S'n_neighbors'
p797
I1
sS'metric'
p798
g5
(g6
(S'S9'
I0
I1
tRp799
(I3
S'|'
NNNI9
I1
I0
tbS'manhattan'
tRp800
sS'weights'
p801
g5
(g6
(S'S7'
I0
I1
tRp802
(I3
S'|'
NNNI7
I1
I0
tbS'uniform'
tRp803
sS'leaf_size'
p804
I15
sS'algorithm'
p805
g5
(g6
(S'S7'
I0
I1
tRp806
(I3
S'|'
NNNI7
I1
I0
tbS'kd_tree'
tRp807
sa(dp808
S'n_neighbors'
p809
I12
sS'metric'
p810
g5
(g6
(S'S9'
I0
I1
tRp811
(I3
S'|'
NNNI9
I1
I0
tbS'manhattan'
tRp812
sS'weights'
p813
g5
(g6
(S'S7'
I0
I1
tRp814
(I3
S'|'
NNNI7
I1
I0
tbS'uniform'
tRp815
sS'leaf_size'
p816
I16
sS'algorithm'
p817
g5
(g6
(S'S7'
I0
I1
tRp818
(I3
S'|'
NNNI7
I1
I0
tbS'kd_tree'
tRp819
sa(dp820
S'n_neighbors'
p821
I6
sS'metric'
p822
g5
(g6
(S'S9'
I0
I1
tRp823
(I3
S'|'
NNNI9
I1
I0
tbS'manhattan'
tRp824
sS'weights'
p825
g5
(g6
(S'S7'
I0
I1
tRp826
(I3
S'|'
NNNI7
I1
I0
tbS'uniform'
tRp827
sS'leaf_size'
p828
I26
sS'algorithm'
p829
g5
(g6
(S'S7'
I0
I1
tRp830
(I3
S'|'
NNNI7
I1
I0
tbS'kd_tree'
tRp831
sa(dp832
S'n_neighbors'
p833
I4
sS'metric'
p834
g5
(g6
(S'S9'
I0
I1
tRp835
(I3
S'|'
NNNI9
I1
I0
tbS'manhattan'
tRp836
sS'weights'
p837
g5
(g6
(S'S7'
I0
I1
tRp838
(I3
S'|'
NNNI7
I1
I0
tbS'uniform'
tRp839
sS'leaf_size'
p840
I17
sS'algorithm'
p841
g5
(g6
(S'S7'
I0
I1
tRp842
(I3
S'|'
NNNI7
I1
I0
tbS'kd_tree'
tRp843
sa(dp844
S'n_neighbors'
p845
I5
sS'algorithm'
p846
g5
(g6
(S'S7'
I0
I1
tRp847
(I3
S'|'
NNNI7
I1
I0
tbS'kd_tree'
tRp848
sS'metric'
p849
g5
(g6
(S'S9'
I0
I1
tRp850
(I3
S'|'
NNNI9
I1
I0
tbS'minkowski'
tRp851
sS'p'
I1
sS'weights'
p852
g5
(g6
(S'S7'
I0
I1
tRp853
(I3
S'|'
NNNI7
I1
I0
tbS'uniform'
tRp854
sS'leaf_size'
p855
I42
sa(dp856
S'n_neighbors'
p857
I2
sS'algorithm'
p858
g5
(g6
(S'S7'
I0
I1
tRp859
(I3
S'|'
NNNI7
I1
I0
tbS'kd_tree'
tRp860
sS'metric'
p861
g5
(g6
(S'S9'
I0
I1
tRp862
(I3
S'|'
NNNI9
I1
I0
tbS'minkowski'
tRp863
sS'p'
I4
sS'weights'
p864
g5
(g6
(S'S7'
I0
I1
tRp865
(I3
S'|'
NNNI7
I1
I0
tbS'uniform'
tRp866
sS'leaf_size'
p867
I28
sa(dp868
S'n_neighbors'
p869
I3
sS'algorithm'
p870
g5
(g6
(S'S7'
I0
I1
tRp871
(I3
S'|'
NNNI7
I1
I0
tbS'kd_tree'
tRp872
sS'metric'
p873
g5
(g6
(S'S9'
I0
I1
tRp874
(I3
S'|'
NNNI9
I1
I0
tbS'minkowski'
tRp875
sS'p'
I5
sS'weights'
p876
g5
(g6
(S'S7'
I0
I1
tRp877
(I3
S'|'
NNNI7
I1
I0
tbS'uniform'
tRp878
sS'leaf_size'
p879
I42
sa(dp880
S'n_neighbors'
p881
I11
sS'algorithm'
p882
g5
(g6
(S'S7'
I0
I1
tRp883
(I3
S'|'
NNNI7
I1
I0
tbS'kd_tree'
tRp884
sS'metric'
p885
g5
(g6
(S'S9'
I0
I1
tRp886
(I3
S'|'
NNNI9
I1
I0
tbS'minkowski'
tRp887
sS'p'
I2
sS'weights'
p888
g5
(g6
(S'S7'
I0
I1
tRp889
(I3
S'|'
NNNI7
I1
I0
tbS'uniform'
tRp890
sS'leaf_size'
p891
I18
sa(dp892
S'n_neighbors'
p893
I5
sS'algorithm'
p894
g5
(g6
(S'S7'
I0
I1
tRp895
(I3
S'|'
NNNI7
I1
I0
tbS'kd_tree'
tRp896
sS'metric'
p897
g5
(g6
(S'S9'
I0
I1
tRp898
(I3
S'|'
NNNI9
I1
I0
tbS'minkowski'
tRp899
sS'p'
I4
sS'weights'
p900
g5
(g6
(S'S7'
I0
I1
tRp901
(I3
S'|'
NNNI7
I1
I0
tbS'uniform'
tRp902
sS'leaf_size'
p903
I31
sa(dp904
S'n_neighbors'
p905
I6
sS'algorithm'
p906
g5
(g6
(S'S7'
I0
I1
tRp907
(I3
S'|'
NNNI7
I1
I0
tbS'kd_tree'
tRp908
sS'metric'
p909
g5
(g6
(S'S9'
I0
I1
tRp910
(I3
S'|'
NNNI9
I1
I0
tbS'minkowski'
tRp911
sS'p'
I7
sS'weights'
p912
g5
(g6
(S'S7'
I0
I1
tRp913
(I3
S'|'
NNNI7
I1
I0
tbS'uniform'
tRp914
sS'leaf_size'
p915
I42
sa(dp916
S'n_neighbors'
p917
I8
sS'algorithm'
p918
g5
(g6
(S'S7'
I0
I1
tRp919
(I3
S'|'
NNNI7
I1
I0
tbS'kd_tree'
tRp920
sS'metric'
p921
g5
(g6
(S'S9'
I0
I1
tRp922
(I3
S'|'
NNNI9
I1
I0
tbS'minkowski'
tRp923
sS'p'
I4
sS'weights'
p924
g5
(g6
(S'S7'
I0
I1
tRp925
(I3
S'|'
NNNI7
I1
I0
tbS'uniform'
tRp926
sS'leaf_size'
p927
I24
sa(dp928
S'n_neighbors'
p929
I5
sS'algorithm'
p930
g5
(g6
(S'S7'
I0
I1
tRp931
(I3
S'|'
NNNI7
I1
I0
tbS'kd_tree'
tRp932
sS'metric'
p933
g5
(g6
(S'S9'
I0
I1
tRp934
(I3
S'|'
NNNI9
I1
I0
tbS'minkowski'
tRp935
sS'p'
I15
sS'weights'
p936
g5
(g6
(S'S7'
I0
I1
tRp937
(I3
S'|'
NNNI7
I1
I0
tbS'uniform'
tRp938
sS'leaf_size'
p939
I42
sa(dp940
S'n_neighbors'
p941
I2
sS'algorithm'
p942
g5
(g6
(S'S7'
I0
I1
tRp943
(I3
S'|'
NNNI7
I1
I0
tbS'kd_tree'
tRp944
sS'metric'
p945
g5
(g6
(S'S9'
I0
I1
tRp946
(I3
S'|'
NNNI9
I1
I0
tbS'minkowski'
tRp947
sS'p'
I2
sS'weights'
p948
g5
(g6
(S'S7'
I0
I1
tRp949
(I3
S'|'
NNNI7
I1
I0
tbS'uniform'
tRp950
sS'leaf_size'
p951
I18
sa(dp952
S'n_neighbors'
p953
I7
sS'algorithm'
p954
g5
(g6
(S'S7'
I0
I1
tRp955
(I3
S'|'
NNNI7
I1
I0
tbS'kd_tree'
tRp956
sS'metric'
p957
g5
(g6
(S'S9'
I0
I1
tRp958
(I3
S'|'
NNNI9
I1
I0
tbS'minkowski'
tRp959
sS'p'
I9
sS'weights'
p960
g5
(g6
(S'S7'
I0
I1
tRp961
(I3
S'|'
NNNI7
I1
I0
tbS'uniform'
tRp962
sS'leaf_size'
p963
I37
sa(dp964
S'n_neighbors'
p965
I4
sS'metric'
p966
g5
(g6
(S'S9'
I0
I1
tRp967
(I3
S'|'
NNNI9
I1
I0
tbS'chebyshev'
tRp968
sS'weights'
p969
g5
(g6
(S'S8'
I0
I1
tRp970
(I3
S'|'
NNNI8
I1
I0
tbS'distance'
tRp971
sS'algorithm'
p972
g5
(g6
(S'S5'
I0
I1
tRp973
(I3
S'|'
NNNI5
I1
I0
tbS'brute'
tRp974
sa(dp975
S'n_neighbors'
p976
I11
sS'metric'
p977
g5
(g6
(S'S9'
I0
I1
tRp978
(I3
S'|'
NNNI9
I1
I0
tbS'chebyshev'
tRp979
sS'weights'
p980
g5
(g6
(S'S8'
I0
I1
tRp981
(I3
S'|'
NNNI8
I1
I0
tbS'distance'
tRp982
sS'algorithm'
p983
g5
(g6
(S'S5'
I0
I1
tRp984
(I3
S'|'
NNNI5
I1
I0
tbS'brute'
tRp985
sa(dp986
S'n_neighbors'
p987
I6
sS'metric'
p988
g5
(g6
(S'S9'
I0
I1
tRp989
(I3
S'|'
NNNI9
I1
I0
tbS'chebyshev'
tRp990
sS'weights'
p991
g5
(g6
(S'S8'
I0
I1
tRp992
(I3
S'|'
NNNI8
I1
I0
tbS'distance'
tRp993
sS'algorithm'
p994
g5
(g6
(S'S5'
I0
I1
tRp995
(I3
S'|'
NNNI5
I1
I0
tbS'brute'
tRp996
sa(dp997
S'n_neighbors'
p998
I8
sS'metric'
p999
g5
(g6
(S'S9'
I0
I1
tRp1000
(I3
S'|'
NNNI9
I1
I0
tbS'chebyshev'
tRp1001
sS'weights'
p1002
g5
(g6
(S'S8'
I0
I1
tRp1003
(I3
S'|'
NNNI8
I1
I0
tbS'distance'
tRp1004
sS'algorithm'
p1005
g5
(g6
(S'S5'
I0
I1
tRp1006
(I3
S'|'
NNNI5
I1
I0
tbS'brute'
tRp1007
sa(dp1008
S'n_neighbors'
p1009
I12
sS'metric'
p1010
g5
(g6
(S'S9'
I0
I1
tRp1011
(I3
S'|'
NNNI9
I1
I0
tbS'chebyshev'
tRp1012
sS'weights'
p1013
g5
(g6
(S'S8'
I0
I1
tRp1014
(I3
S'|'
NNNI8
I1
I0
tbS'distance'
tRp1015
sS'algorithm'
p1016
g5
(g6
(S'S5'
I0
I1
tRp1017
(I3
S'|'
NNNI5
I1
I0
tbS'brute'
tRp1018
sa(dp1019
S'n_neighbors'
p1020
I7
sS'metric'
p1021
g5
(g6
(S'S9'
I0
I1
tRp1022
(I3
S'|'
NNNI9
I1
I0
tbS'chebyshev'
tRp1023
sS'weights'
p1024
g5
(g6
(S'S8'
I0
I1
tRp1025
(I3
S'|'
NNNI8
I1
I0
tbS'distance'
tRp1026
sS'algorithm'
p1027
g5
(g6
(S'S5'
I0
I1
tRp1028
(I3
S'|'
NNNI5
I1
I0
tbS'brute'
tRp1029
sa(dp1030
S'n_neighbors'
p1031
I9
sS'metric'
p1032
g5
(g6
(S'S9'
I0
I1
tRp1033
(I3
S'|'
NNNI9
I1
I0
tbS'chebyshev'
tRp1034
sS'weights'
p1035
g5
(g6
(S'S8'
I0
I1
tRp1036
(I3
S'|'
NNNI8
I1
I0
tbS'distance'
tRp1037
sS'algorithm'
p1038
g5
(g6
(S'S5'
I0
I1
tRp1039
(I3
S'|'
NNNI5
I1
I0
tbS'brute'
tRp1040
sa(dp1041
S'n_neighbors'
p1042
I3
sS'metric'
p1043
g5
(g6
(S'S9'
I0
I1
tRp1044
(I3
S'|'
NNNI9
I1
I0
tbS'chebyshev'
tRp1045
sS'weights'
p1046
g5
(g6
(S'S8'
I0
I1
tRp1047
(I3
S'|'
NNNI8
I1
I0
tbS'distance'
tRp1048
sS'algorithm'
p1049
g5
(g6
(S'S5'
I0
I1
tRp1050
(I3
S'|'
NNNI5
I1
I0
tbS'brute'
tRp1051
sa(dp1052
S'n_neighbors'
p1053
I1
sS'metric'
p1054
g5
(g6
(S'S9'
I0
I1
tRp1055
(I3
S'|'
NNNI9
I1
I0
tbS'chebyshev'
tRp1056
sS'weights'
p1057
g5
(g6
(S'S8'
I0
I1
tRp1058
(I3
S'|'
NNNI8
I1
I0
tbS'distance'
tRp1059
sS'algorithm'
p1060
g5
(g6
(S'S5'
I0
I1
tRp1061
(I3
S'|'
NNNI5
I1
I0
tbS'brute'
tRp1062
sa(dp1063
S'n_neighbors'
p1064
I2
sS'metric'
p1065
g5
(g6
(S'S9'
I0
I1
tRp1066
(I3
S'|'
NNNI9
I1
I0
tbS'chebyshev'
tRp1067
sS'weights'
p1068
g5
(g6
(S'S8'
I0
I1
tRp1069
(I3
S'|'
NNNI8
I1
I0
tbS'distance'
tRp1070
sS'algorithm'
p1071
g5
(g6
(S'S5'
I0
I1
tRp1072
(I3
S'|'
NNNI5
I1
I0
tbS'brute'
tRp1073
sa(dp1074
S'n_neighbors'
p1075
I6
sS'metric'
p1076
g5
(g6
(S'S9'
I0
I1
tRp1077
(I3
S'|'
NNNI9
I1
I0
tbS'euclidean'
tRp1078
sS'weights'
p1079
g5
(g6
(S'S8'
I0
I1
tRp1080
(I3
S'|'
NNNI8
I1
I0
tbS'distance'
tRp1081
sS'algorithm'
p1082
g5
(g6
(S'S5'
I0
I1
tRp1083
(I3
S'|'
NNNI5
I1
I0
tbS'brute'
tRp1084
sa(dp1085
S'n_neighbors'
p1086
I1
sS'metric'
p1087
g5
(g6
(S'S9'
I0
I1
tRp1088
(I3
S'|'
NNNI9
I1
I0
tbS'euclidean'
tRp1089
sS'weights'
p1090
g5
(g6
(S'S8'
I0
I1
tRp1091
(I3
S'|'
NNNI8
I1
I0
tbS'distance'
tRp1092
sS'algorithm'
p1093
g5
(g6
(S'S5'
I0
I1
tRp1094
(I3
S'|'
NNNI5
I1
I0
tbS'brute'
tRp1095
sa(dp1096
S'n_neighbors'
p1097
I9
sS'metric'
p1098
g5
(g6
(S'S9'
I0
I1
tRp1099
(I3
S'|'
NNNI9
I1
I0
tbS'euclidean'
tRp1100
sS'weights'
p1101
g5
(g6
(S'S8'
I0
I1
tRp1102
(I3
S'|'
NNNI8
I1
I0
tbS'distance'
tRp1103
sS'algorithm'
p1104
g5
(g6
(S'S5'
I0
I1
tRp1105
(I3
S'|'
NNNI5
I1
I0
tbS'brute'
tRp1106
sa(dp1107
S'n_neighbors'
p1108
I5
sS'metric'
p1109
g5
(g6
(S'S9'
I0
I1
tRp1110
(I3
S'|'
NNNI9
I1
I0
tbS'euclidean'
tRp1111
sS'weights'
p1112
g5
(g6
(S'S8'
I0
I1
tRp1113
(I3
S'|'
NNNI8
I1
I0
tbS'distance'
tRp1114
sS'algorithm'
p1115
g5
(g6
(S'S5'
I0
I1
tRp1116
(I3
S'|'
NNNI5
I1
I0
tbS'brute'
tRp1117
sa(dp1118
S'n_neighbors'
p1119
I10
sS'metric'
p1120
g5
(g6
(S'S9'
I0
I1
tRp1121
(I3
S'|'
NNNI9
I1
I0
tbS'euclidean'
tRp1122
sS'weights'
p1123
g5
(g6
(S'S8'
I0
I1
tRp1124
(I3
S'|'
NNNI8
I1
I0
tbS'distance'
tRp1125
sS'algorithm'
p1126
g5
(g6
(S'S5'
I0
I1
tRp1127
(I3
S'|'
NNNI5
I1
I0
tbS'brute'
tRp1128
sa(dp1129
S'n_neighbors'
p1130
I4
sS'metric'
p1131
g5
(g6
(S'S9'
I0
I1
tRp1132
(I3
S'|'
NNNI9
I1
I0
tbS'euclidean'
tRp1133
sS'weights'
p1134
g5
(g6
(S'S8'
I0
I1
tRp1135
(I3
S'|'
NNNI8
I1
I0
tbS'distance'
tRp1136
sS'algorithm'
p1137
g5
(g6
(S'S5'
I0
I1
tRp1138
(I3
S'|'
NNNI5
I1
I0
tbS'brute'
tRp1139
sa(dp1140
S'n_neighbors'
p1141
I8
sS'metric'
p1142
g5
(g6
(S'S9'
I0
I1
tRp1143
(I3
S'|'
NNNI9
I1
I0
tbS'euclidean'
tRp1144
sS'weights'
p1145
g5
(g6
(S'S8'
I0
I1
tRp1146
(I3
S'|'
NNNI8
I1
I0
tbS'distance'
tRp1147
sS'algorithm'
p1148
g5
(g6
(S'S5'
I0
I1
tRp1149
(I3
S'|'
NNNI5
I1
I0
tbS'brute'
tRp1150
sa(dp1151
S'n_neighbors'
p1152
I7
sS'metric'
p1153
g5
(g6
(S'S9'
I0
I1
tRp1154
(I3
S'|'
NNNI9
I1
I0
tbS'euclidean'
tRp1155
sS'weights'
p1156
g5
(g6
(S'S8'
I0
I1
tRp1157
(I3
S'|'
NNNI8
I1
I0
tbS'distance'
tRp1158
sS'algorithm'
p1159
g5
(g6
(S'S5'
I0
I1
tRp1160
(I3
S'|'
NNNI5
I1
I0
tbS'brute'
tRp1161
sa(dp1162
S'n_neighbors'
p1163
I12
sS'metric'
p1164
g5
(g6
(S'S9'
I0
I1
tRp1165
(I3
S'|'
NNNI9
I1
I0
tbS'euclidean'
tRp1166
sS'weights'
p1167
g5
(g6
(S'S8'
I0
I1
tRp1168
(I3
S'|'
NNNI8
I1
I0
tbS'distance'
tRp1169
sS'algorithm'
p1170
g5
(g6
(S'S5'
I0
I1
tRp1171
(I3
S'|'
NNNI5
I1
I0
tbS'brute'
tRp1172
sa(dp1173
S'n_neighbors'
p1174
I3
sS'metric'
p1175
g5
(g6
(S'S9'
I0
I1
tRp1176
(I3
S'|'
NNNI9
I1
I0
tbS'euclidean'
tRp1177
sS'weights'
p1178
g5
(g6
(S'S8'
I0
I1
tRp1179
(I3
S'|'
NNNI8
I1
I0
tbS'distance'
tRp1180
sS'algorithm'
p1181
g5
(g6
(S'S5'
I0
I1
tRp1182
(I3
S'|'
NNNI5
I1
I0
tbS'brute'
tRp1183
sa(dp1184
S'n_neighbors'
p1185
I8
sS'metric'
p1186
g5
(g6
(S'S9'
I0
I1
tRp1187
(I3
S'|'
NNNI9
I1
I0
tbS'manhattan'
tRp1188
sS'weights'
p1189
g5
(g6
(S'S8'
I0
I1
tRp1190
(I3
S'|'
NNNI8
I1
I0
tbS'distance'
tRp1191
sS'algorithm'
p1192
g5
(g6
(S'S5'
I0
I1
tRp1193
(I3
S'|'
NNNI5
I1
I0
tbS'brute'
tRp1194
sa(dp1195
S'n_neighbors'
p1196
I2
sS'metric'
p1197
g5
(g6
(S'S9'
I0
I1
tRp1198
(I3
S'|'
NNNI9
I1
I0
tbS'manhattan'
tRp1199
sS'weights'
p1200
g5
(g6
(S'S8'
I0
I1
tRp1201
(I3
S'|'
NNNI8
I1
I0
tbS'distance'
tRp1202
sS'algorithm'
p1203
g5
(g6
(S'S5'
I0
I1
tRp1204
(I3
S'|'
NNNI5
I1
I0
tbS'brute'
tRp1205
sa(dp1206
S'n_neighbors'
p1207
I6
sS'metric'
p1208
g5
(g6
(S'S9'
I0
I1
tRp1209
(I3
S'|'
NNNI9
I1
I0
tbS'manhattan'
tRp1210
sS'weights'
p1211
g5
(g6
(S'S8'
I0
I1
tRp1212
(I3
S'|'
NNNI8
I1
I0
tbS'distance'
tRp1213
sS'algorithm'
p1214
g5
(g6
(S'S5'
I0
I1
tRp1215
(I3
S'|'
NNNI5
I1
I0
tbS'brute'
tRp1216
sa(dp1217
S'n_neighbors'
p1218
I11
sS'metric'
p1219
g5
(g6
(S'S9'
I0
I1
tRp1220
(I3
S'|'
NNNI9
I1
I0
tbS'manhattan'
tRp1221
sS'weights'
p1222
g5
(g6
(S'S8'
I0
I1
tRp1223
(I3
S'|'
NNNI8
I1
I0
tbS'distance'
tRp1224
sS'algorithm'
p1225
g5
(g6
(S'S5'
I0
I1
tRp1226
(I3
S'|'
NNNI5
I1
I0
tbS'brute'
tRp1227
sa(dp1228
S'n_neighbors'
p1229
I7
sS'metric'
p1230
g5
(g6
(S'S9'
I0
I1
tRp1231
(I3
S'|'
NNNI9
I1
I0
tbS'manhattan'
tRp1232
sS'weights'
p1233
g5
(g6
(S'S8'
I0
I1
tRp1234
(I3
S'|'
NNNI8
I1
I0
tbS'distance'
tRp1235
sS'algorithm'
p1236
g5
(g6
(S'S5'
I0
I1
tRp1237
(I3
S'|'
NNNI5
I1
I0
tbS'brute'
tRp1238
sa(dp1239
S'n_neighbors'
p1240
I9
sS'metric'
p1241
g5
(g6
(S'S9'
I0
I1
tRp1242
(I3
S'|'
NNNI9
I1
I0
tbS'manhattan'
tRp1243
sS'weights'
p1244
g5
(g6
(S'S8'
I0
I1
tRp1245
(I3
S'|'
NNNI8
I1
I0
tbS'distance'
tRp1246
sS'algorithm'
p1247
g5
(g6
(S'S5'
I0
I1
tRp1248
(I3
S'|'
NNNI5
I1
I0
tbS'brute'
tRp1249
sa(dp1250
S'n_neighbors'
p1251
I4
sS'metric'
p1252
g5
(g6
(S'S9'
I0
I1
tRp1253
(I3
S'|'
NNNI9
I1
I0
tbS'manhattan'
tRp1254
sS'weights'
p1255
g5
(g6
(S'S8'
I0
I1
tRp1256
(I3
S'|'
NNNI8
I1
I0
tbS'distance'
tRp1257
sS'algorithm'
p1258
g5
(g6
(S'S5'
I0
I1
tRp1259
(I3
S'|'
NNNI5
I1
I0
tbS'brute'
tRp1260
sa(dp1261
S'n_neighbors'
p1262
I3
sS'metric'
p1263
g5
(g6
(S'S9'
I0
I1
tRp1264
(I3
S'|'
NNNI9
I1
I0
tbS'manhattan'
tRp1265
sS'weights'
p1266
g5
(g6
(S'S8'
I0
I1
tRp1267
(I3
S'|'
NNNI8
I1
I0
tbS'distance'
tRp1268
sS'algorithm'
p1269
g5
(g6
(S'S5'
I0
I1
tRp1270
(I3
S'|'
NNNI5
I1
I0
tbS'brute'
tRp1271
sa(dp1272
S'n_neighbors'
p1273
I10
sS'metric'
p1274
g5
(g6
(S'S9'
I0
I1
tRp1275
(I3
S'|'
NNNI9
I1
I0
tbS'manhattan'
tRp1276
sS'weights'
p1277
g5
(g6
(S'S8'
I0
I1
tRp1278
(I3
S'|'
NNNI8
I1
I0
tbS'distance'
tRp1279
sS'algorithm'
p1280
g5
(g6
(S'S5'
I0
I1
tRp1281
(I3
S'|'
NNNI5
I1
I0
tbS'brute'
tRp1282
sa(dp1283
S'n_neighbors'
p1284
I5
sS'metric'
p1285
g5
(g6
(S'S9'
I0
I1
tRp1286
(I3
S'|'
NNNI9
I1
I0
tbS'manhattan'
tRp1287
sS'weights'
p1288
g5
(g6
(S'S8'
I0
I1
tRp1289
(I3
S'|'
NNNI8
I1
I0
tbS'distance'
tRp1290
sS'algorithm'
p1291
g5
(g6
(S'S5'
I0
I1
tRp1292
(I3
S'|'
NNNI5
I1
I0
tbS'brute'
tRp1293
sa(dp1294
S'p'
I1
sS'metric'
p1295
g5
(g6
(S'S9'
I0
I1
tRp1296
(I3
S'|'
NNNI9
I1
I0
tbS'minkowski'
tRp1297
sS'weights'
p1298
g5
(g6
(S'S8'
I0
I1
tRp1299
(I3
S'|'
NNNI8
I1
I0
tbS'distance'
tRp1300
sS'algorithm'
p1301
g5
(g6
(S'S5'
I0
I1
tRp1302
(I3
S'|'
NNNI5
I1
I0
tbS'brute'
tRp1303
sS'n_neighbors'
p1304
I4
sa(dp1305
S'p'
I5
sS'metric'
p1306
g5
(g6
(S'S9'
I0
I1
tRp1307
(I3
S'|'
NNNI9
I1
I0
tbS'minkowski'
tRp1308
sS'weights'
p1309
g5
(g6
(S'S8'
I0
I1
tRp1310
(I3
S'|'
NNNI8
I1
I0
tbS'distance'
tRp1311
sS'algorithm'
p1312
g5
(g6
(S'S5'
I0
I1
tRp1313
(I3
S'|'
NNNI5
I1
I0
tbS'brute'
tRp1314
sS'n_neighbors'
p1315
I2
sa(dp1316
S'p'
I12
sS'metric'
p1317
g5
(g6
(S'S9'
I0
I1
tRp1318
(I3
S'|'
NNNI9
I1
I0
tbS'minkowski'
tRp1319
sS'weights'
p1320
g5
(g6
(S'S8'
I0
I1
tRp1321
(I3
S'|'
NNNI8
I1
I0
tbS'distance'
tRp1322
sS'algorithm'
p1323
g5
(g6
(S'S5'
I0
I1
tRp1324
(I3
S'|'
NNNI5
I1
I0
tbS'brute'
tRp1325
sS'n_neighbors'
p1326
I10
sa(dp1327
S'p'
I7
sS'metric'
p1328
g5
(g6
(S'S9'
I0
I1
tRp1329
(I3
S'|'
NNNI9
I1
I0
tbS'minkowski'
tRp1330
sS'weights'
p1331
g5
(g6
(S'S8'
I0
I1
tRp1332
(I3
S'|'
NNNI8
I1
I0
tbS'distance'
tRp1333
sS'algorithm'
p1334
g5
(g6
(S'S5'
I0
I1
tRp1335
(I3
S'|'
NNNI5
I1
I0
tbS'brute'
tRp1336
sS'n_neighbors'
p1337
I6
sa(dp1338
S'p'
I3
sS'metric'
p1339
g5
(g6
(S'S9'
I0
I1
tRp1340
(I3
S'|'
NNNI9
I1
I0
tbS'minkowski'
tRp1341
sS'weights'
p1342
g5
(g6
(S'S8'
I0
I1
tRp1343
(I3
S'|'
NNNI8
I1
I0
tbS'distance'
tRp1344
sS'algorithm'
p1345
g5
(g6
(S'S5'
I0
I1
tRp1346
(I3
S'|'
NNNI5
I1
I0
tbS'brute'
tRp1347
sS'n_neighbors'
p1348
I9
sa(dp1349
S'p'
I1
sS'metric'
p1350
g5
(g6
(S'S9'
I0
I1
tRp1351
(I3
S'|'
NNNI9
I1
I0
tbS'minkowski'
tRp1352
sS'weights'
p1353
g5
(g6
(S'S8'
I0
I1
tRp1354
(I3
S'|'
NNNI8
I1
I0
tbS'distance'
tRp1355
sS'algorithm'
p1356
g5
(g6
(S'S5'
I0
I1
tRp1357
(I3
S'|'
NNNI5
I1
I0
tbS'brute'
tRp1358
sS'n_neighbors'
p1359
I2
sa(dp1360
S'p'
I2
sS'metric'
p1361
g5
(g6
(S'S9'
I0
I1
tRp1362
(I3
S'|'
NNNI9
I1
I0
tbS'minkowski'
tRp1363
sS'weights'
p1364
g5
(g6
(S'S8'
I0
I1
tRp1365
(I3
S'|'
NNNI8
I1
I0
tbS'distance'
tRp1366
sS'algorithm'
p1367
g5
(g6
(S'S5'
I0
I1
tRp1368
(I3
S'|'
NNNI5
I1
I0
tbS'brute'
tRp1369
sS'n_neighbors'
p1370
I1
sa(dp1371
S'p'
I6
sS'metric'
p1372
g5
(g6
(S'S9'
I0
I1
tRp1373
(I3
S'|'
NNNI9
I1
I0
tbS'minkowski'
tRp1374
sS'weights'
p1375
g5
(g6
(S'S8'
I0
I1
tRp1376
(I3
S'|'
NNNI8
I1
I0
tbS'distance'
tRp1377
sS'algorithm'
p1378
g5
(g6
(S'S5'
I0
I1
tRp1379
(I3
S'|'
NNNI5
I1
I0
tbS'brute'
tRp1380
sS'n_neighbors'
p1381
I5
sa(dp1382
S'p'
I2
sS'metric'
p1383
g5
(g6
(S'S9'
I0
I1
tRp1384
(I3
S'|'
NNNI9
I1
I0
tbS'minkowski'
tRp1385
sS'weights'
p1386
g5
(g6
(S'S8'
I0
I1
tRp1387
(I3
S'|'
NNNI8
I1
I0
tbS'distance'
tRp1388
sS'algorithm'
p1389
g5
(g6
(S'S5'
I0
I1
tRp1390
(I3
S'|'
NNNI5
I1
I0
tbS'brute'
tRp1391
sS'n_neighbors'
p1392
I10
sa(dp1393
S'p'
I3
sS'metric'
p1394
g5
(g6
(S'S9'
I0
I1
tRp1395
(I3
S'|'
NNNI9
I1
I0
tbS'minkowski'
tRp1396
sS'weights'
p1397
g5
(g6
(S'S8'
I0
I1
tRp1398
(I3
S'|'
NNNI8
I1
I0
tbS'distance'
tRp1399
sS'algorithm'
p1400
g5
(g6
(S'S5'
I0
I1
tRp1401
(I3
S'|'
NNNI5
I1
I0
tbS'brute'
tRp1402
sS'n_neighbors'
p1403
I5
sa(dp1404
S'n_neighbors'
p1405
I1
sS'metric'
p1406
g5
(g6
(S'S9'
I0
I1
tRp1407
(I3
S'|'
NNNI9
I1
I0
tbS'chebyshev'
tRp1408
sS'weights'
p1409
g5
(g6
(S'S7'
I0
I1
tRp1410
(I3
S'|'
NNNI7
I1
I0
tbS'uniform'
tRp1411
sS'algorithm'
p1412
g5
(g6
(S'S5'
I0
I1
tRp1413
(I3
S'|'
NNNI5
I1
I0
tbS'brute'
tRp1414
sa(dp1415
S'n_neighbors'
p1416
I11
sS'metric'
p1417
g5
(g6
(S'S9'
I0
I1
tRp1418
(I3
S'|'
NNNI9
I1
I0
tbS'chebyshev'
tRp1419
sS'weights'
p1420
g5
(g6
(S'S7'
I0
I1
tRp1421
(I3
S'|'
NNNI7
I1
I0
tbS'uniform'
tRp1422
sS'algorithm'
p1423
g5
(g6
(S'S5'
I0
I1
tRp1424
(I3
S'|'
NNNI5
I1
I0
tbS'brute'
tRp1425
sa(dp1426
S'n_neighbors'
p1427
I2
sS'metric'
p1428
g5
(g6
(S'S9'
I0
I1
tRp1429
(I3
S'|'
NNNI9
I1
I0
tbS'chebyshev'
tRp1430
sS'weights'
p1431
g5
(g6
(S'S7'
I0
I1
tRp1432
(I3
S'|'
NNNI7
I1
I0
tbS'uniform'
tRp1433
sS'algorithm'
p1434
g5
(g6
(S'S5'
I0
I1
tRp1435
(I3
S'|'
NNNI5
I1
I0
tbS'brute'
tRp1436
sa(dp1437
S'n_neighbors'
p1438
I5
sS'metric'
p1439
g5
(g6
(S'S9'
I0
I1
tRp1440
(I3
S'|'
NNNI9
I1
I0
tbS'chebyshev'
tRp1441
sS'weights'
p1442
g5
(g6
(S'S7'
I0
I1
tRp1443
(I3
S'|'
NNNI7
I1
I0
tbS'uniform'
tRp1444
sS'algorithm'
p1445
g5
(g6
(S'S5'
I0
I1
tRp1446
(I3
S'|'
NNNI5
I1
I0
tbS'brute'
tRp1447
sa(dp1448
S'n_neighbors'
p1449
I12
sS'metric'
p1450
g5
(g6
(S'S9'
I0
I1
tRp1451
(I3
S'|'
NNNI9
I1
I0
tbS'chebyshev'
tRp1452
sS'weights'
p1453
g5
(g6
(S'S7'
I0
I1
tRp1454
(I3
S'|'
NNNI7
I1
I0
tbS'uniform'
tRp1455
sS'algorithm'
p1456
g5
(g6
(S'S5'
I0
I1
tRp1457
(I3
S'|'
NNNI5
I1
I0
tbS'brute'
tRp1458
sa(dp1459
S'n_neighbors'
p1460
I10
sS'metric'
p1461
g5
(g6
(S'S9'
I0
I1
tRp1462
(I3
S'|'
NNNI9
I1
I0
tbS'chebyshev'
tRp1463
sS'weights'
p1464
g5
(g6
(S'S7'
I0
I1
tRp1465
(I3
S'|'
NNNI7
I1
I0
tbS'uniform'
tRp1466
sS'algorithm'
p1467
g5
(g6
(S'S5'
I0
I1
tRp1468
(I3
S'|'
NNNI5
I1
I0
tbS'brute'
tRp1469
sa(dp1470
S'n_neighbors'
p1471
I8
sS'metric'
p1472
g5
(g6
(S'S9'
I0
I1
tRp1473
(I3
S'|'
NNNI9
I1
I0
tbS'chebyshev'
tRp1474
sS'weights'
p1475
g5
(g6
(S'S7'
I0
I1
tRp1476
(I3
S'|'
NNNI7
I1
I0
tbS'uniform'
tRp1477
sS'algorithm'
p1478
g5
(g6
(S'S5'
I0
I1
tRp1479
(I3
S'|'
NNNI5
I1
I0
tbS'brute'
tRp1480
sa(dp1481
S'n_neighbors'
p1482
I3
sS'metric'
p1483
g5
(g6
(S'S9'
I0
I1
tRp1484
(I3
S'|'
NNNI9
I1
I0
tbS'chebyshev'
tRp1485
sS'weights'
p1486
g5
(g6
(S'S7'
I0
I1
tRp1487
(I3
S'|'
NNNI7
I1
I0
tbS'uniform'
tRp1488
sS'algorithm'
p1489
g5
(g6
(S'S5'
I0
I1
tRp1490
(I3
S'|'
NNNI5
I1
I0
tbS'brute'
tRp1491
sa(dp1492
S'n_neighbors'
p1493
I4
sS'metric'
p1494
g5
(g6
(S'S9'
I0
I1
tRp1495
(I3
S'|'
NNNI9
I1
I0
tbS'chebyshev'
tRp1496
sS'weights'
p1497
g5
(g6
(S'S7'
I0
I1
tRp1498
(I3
S'|'
NNNI7
I1
I0
tbS'uniform'
tRp1499
sS'algorithm'
p1500
g5
(g6
(S'S5'
I0
I1
tRp1501
(I3
S'|'
NNNI5
I1
I0
tbS'brute'
tRp1502
sa(dp1503
S'n_neighbors'
p1504
I9
sS'metric'
p1505
g5
(g6
(S'S9'
I0
I1
tRp1506
(I3
S'|'
NNNI9
I1
I0
tbS'chebyshev'
tRp1507
sS'weights'
p1508
g5
(g6
(S'S7'
I0
I1
tRp1509
(I3
S'|'
NNNI7
I1
I0
tbS'uniform'
tRp1510
sS'algorithm'
p1511
g5
(g6
(S'S5'
I0
I1
tRp1512
(I3
S'|'
NNNI5
I1
I0
tbS'brute'
tRp1513
sa(dp1514
S'n_neighbors'
p1515
I11
sS'metric'
p1516
g5
(g6
(S'S9'
I0
I1
tRp1517
(I3
S'|'
NNNI9
I1
I0
tbS'euclidean'
tRp1518
sS'weights'
p1519
g5
(g6
(S'S7'
I0
I1
tRp1520
(I3
S'|'
NNNI7
I1
I0
tbS'uniform'
tRp1521
sS'algorithm'
p1522
g5
(g6
(S'S5'
I0
I1
tRp1523
(I3
S'|'
NNNI5
I1
I0
tbS'brute'
tRp1524
sa(dp1525
S'n_neighbors'
p1526
I3
sS'metric'
p1527
g5
(g6
(S'S9'
I0
I1
tRp1528
(I3
S'|'
NNNI9
I1
I0
tbS'euclidean'
tRp1529
sS'weights'
p1530
g5
(g6
(S'S7'
I0
I1
tRp1531
(I3
S'|'
NNNI7
I1
I0
tbS'uniform'
tRp1532
sS'algorithm'
p1533
g5
(g6
(S'S5'
I0
I1
tRp1534
(I3
S'|'
NNNI5
I1
I0
tbS'brute'
tRp1535
sa(dp1536
S'n_neighbors'
p1537
I12
sS'metric'
p1538
g5
(g6
(S'S9'
I0
I1
tRp1539
(I3
S'|'
NNNI9
I1
I0
tbS'euclidean'
tRp1540
sS'weights'
p1541
g5
(g6
(S'S7'
I0
I1
tRp1542
(I3
S'|'
NNNI7
I1
I0
tbS'uniform'
tRp1543
sS'algorithm'
p1544
g5
(g6
(S'S5'
I0
I1
tRp1545
(I3
S'|'
NNNI5
I1
I0
tbS'brute'
tRp1546
sa(dp1547
S'n_neighbors'
p1548
I5
sS'metric'
p1549
g5
(g6
(S'S9'
I0
I1
tRp1550
(I3
S'|'
NNNI9
I1
I0
tbS'euclidean'
tRp1551
sS'weights'
p1552
g5
(g6
(S'S7'
I0
I1
tRp1553
(I3
S'|'
NNNI7
I1
I0
tbS'uniform'
tRp1554
sS'algorithm'
p1555
g5
(g6
(S'S5'
I0
I1
tRp1556
(I3
S'|'
NNNI5
I1
I0
tbS'brute'
tRp1557
sa(dp1558
S'n_neighbors'
p1559
I6
sS'metric'
p1560
g5
(g6
(S'S9'
I0
I1
tRp1561
(I3
S'|'
NNNI9
I1
I0
tbS'euclidean'
tRp1562
sS'weights'
p1563
g5
(g6
(S'S7'
I0
I1
tRp1564
(I3
S'|'
NNNI7
I1
I0
tbS'uniform'
tRp1565
sS'algorithm'
p1566
g5
(g6
(S'S5'
I0
I1
tRp1567
(I3
S'|'
NNNI5
I1
I0
tbS'brute'
tRp1568
sa(dp1569
S'n_neighbors'
p1570
I1
sS'metric'
p1571
g5
(g6
(S'S9'
I0
I1
tRp1572
(I3
S'|'
NNNI9
I1
I0
tbS'euclidean'
tRp1573
sS'weights'
p1574
g5
(g6
(S'S7'
I0
I1
tRp1575
(I3
S'|'
NNNI7
I1
I0
tbS'uniform'
tRp1576
sS'algorithm'
p1577
g5
(g6
(S'S5'
I0
I1
tRp1578
(I3
S'|'
NNNI5
I1
I0
tbS'brute'
tRp1579
sa(dp1580
S'n_neighbors'
p1581
I8
sS'metric'
p1582
g5
(g6
(S'S9'
I0
I1
tRp1583
(I3
S'|'
NNNI9
I1
I0
tbS'euclidean'
tRp1584
sS'weights'
p1585
g5
(g6
(S'S7'
I0
I1
tRp1586
(I3
S'|'
NNNI7
I1
I0
tbS'uniform'
tRp1587
sS'algorithm'
p1588
g5
(g6
(S'S5'
I0
I1
tRp1589
(I3
S'|'
NNNI5
I1
I0
tbS'brute'
tRp1590
sa(dp1591
S'n_neighbors'
p1592
I10
sS'metric'
p1593
g5
(g6
(S'S9'
I0
I1
tRp1594
(I3
S'|'
NNNI9
I1
I0
tbS'euclidean'
tRp1595
sS'weights'
p1596
g5
(g6
(S'S7'
I0
I1
tRp1597
(I3
S'|'
NNNI7
I1
I0
tbS'uniform'
tRp1598
sS'algorithm'
p1599
g5
(g6
(S'S5'
I0
I1
tRp1600
(I3
S'|'
NNNI5
I1
I0
tbS'brute'
tRp1601
sa(dp1602
S'n_neighbors'
p1603
I9
sS'metric'
p1604
g5
(g6
(S'S9'
I0
I1
tRp1605
(I3
S'|'
NNNI9
I1
I0
tbS'euclidean'
tRp1606
sS'weights'
p1607
g5
(g6
(S'S7'
I0
I1
tRp1608
(I3
S'|'
NNNI7
I1
I0
tbS'uniform'
tRp1609
sS'algorithm'
p1610
g5
(g6
(S'S5'
I0
I1
tRp1611
(I3
S'|'
NNNI5
I1
I0
tbS'brute'
tRp1612
sa(dp1613
S'n_neighbors'
p1614
I7
sS'metric'
p1615
g5
(g6
(S'S9'
I0
I1
tRp1616
(I3
S'|'
NNNI9
I1
I0
tbS'euclidean'
tRp1617
sS'weights'
p1618
g5
(g6
(S'S7'
I0
I1
tRp1619
(I3
S'|'
NNNI7
I1
I0
tbS'uniform'
tRp1620
sS'algorithm'
p1621
g5
(g6
(S'S5'
I0
I1
tRp1622
(I3
S'|'
NNNI5
I1
I0
tbS'brute'
tRp1623
sa(dp1624
S'n_neighbors'
p1625
I7
sS'metric'
p1626
g5
(g6
(S'S9'
I0
I1
tRp1627
(I3
S'|'
NNNI9
I1
I0
tbS'manhattan'
tRp1628
sS'weights'
p1629
g5
(g6
(S'S7'
I0
I1
tRp1630
(I3
S'|'
NNNI7
I1
I0
tbS'uniform'
tRp1631
sS'algorithm'
p1632
g5
(g6
(S'S5'
I0
I1
tRp1633
(I3
S'|'
NNNI5
I1
I0
tbS'brute'
tRp1634
sa(dp1635
S'n_neighbors'
p1636
I1
sS'metric'
p1637
g5
(g6
(S'S9'
I0
I1
tRp1638
(I3
S'|'
NNNI9
I1
I0
tbS'manhattan'
tRp1639
sS'weights'
p1640
g5
(g6
(S'S7'
I0
I1
tRp1641
(I3
S'|'
NNNI7
I1
I0
tbS'uniform'
tRp1642
sS'algorithm'
p1643
g5
(g6
(S'S5'
I0
I1
tRp1644
(I3
S'|'
NNNI5
I1
I0
tbS'brute'
tRp1645
sa(dp1646
S'n_neighbors'
p1647
I8
sS'metric'
p1648
g5
(g6
(S'S9'
I0
I1
tRp1649
(I3
S'|'
NNNI9
I1
I0
tbS'manhattan'
tRp1650
sS'weights'
p1651
g5
(g6
(S'S7'
I0
I1
tRp1652
(I3
S'|'
NNNI7
I1
I0
tbS'uniform'
tRp1653
sS'algorithm'
p1654
g5
(g6
(S'S5'
I0
I1
tRp1655
(I3
S'|'
NNNI5
I1
I0
tbS'brute'
tRp1656
sa(dp1657
S'n_neighbors'
p1658
I9
sS'metric'
p1659
g5
(g6
(S'S9'
I0
I1
tRp1660
(I3
S'|'
NNNI9
I1
I0
tbS'manhattan'
tRp1661
sS'weights'
p1662
g5
(g6
(S'S7'
I0
I1
tRp1663
(I3
S'|'
NNNI7
I1
I0
tbS'uniform'
tRp1664
sS'algorithm'
p1665
g5
(g6
(S'S5'
I0
I1
tRp1666
(I3
S'|'
NNNI5
I1
I0
tbS'brute'
tRp1667
sa(dp1668
S'n_neighbors'
p1669
I4
sS'metric'
p1670
g5
(g6
(S'S9'
I0
I1
tRp1671
(I3
S'|'
NNNI9
I1
I0
tbS'manhattan'
tRp1672
sS'weights'
p1673
g5
(g6
(S'S7'
I0
I1
tRp1674
(I3
S'|'
NNNI7
I1
I0
tbS'uniform'
tRp1675
sS'algorithm'
p1676
g5
(g6
(S'S5'
I0
I1
tRp1677
(I3
S'|'
NNNI5
I1
I0
tbS'brute'
tRp1678
sa(dp1679
S'n_neighbors'
p1680
I12
sS'metric'
p1681
g5
(g6
(S'S9'
I0
I1
tRp1682
(I3
S'|'
NNNI9
I1
I0
tbS'manhattan'
tRp1683
sS'weights'
p1684
g5
(g6
(S'S7'
I0
I1
tRp1685
(I3
S'|'
NNNI7
I1
I0
tbS'uniform'
tRp1686
sS'algorithm'
p1687
g5
(g6
(S'S5'
I0
I1
tRp1688
(I3
S'|'
NNNI5
I1
I0
tbS'brute'
tRp1689
sa(dp1690
S'n_neighbors'
p1691
I11
sS'metric'
p1692
g5
(g6
(S'S9'
I0
I1
tRp1693
(I3
S'|'
NNNI9
I1
I0
tbS'manhattan'
tRp1694
sS'weights'
p1695
g5
(g6
(S'S7'
I0
I1
tRp1696
(I3
S'|'
NNNI7
I1
I0
tbS'uniform'
tRp1697
sS'algorithm'
p1698
g5
(g6
(S'S5'
I0
I1
tRp1699
(I3
S'|'
NNNI5
I1
I0
tbS'brute'
tRp1700
sa(dp1701
S'n_neighbors'
p1702
I6
sS'metric'
p1703
g5
(g6
(S'S9'
I0
I1
tRp1704
(I3
S'|'
NNNI9
I1
I0
tbS'manhattan'
tRp1705
sS'weights'
p1706
g5
(g6
(S'S7'
I0
I1
tRp1707
(I3
S'|'
NNNI7
I1
I0
tbS'uniform'
tRp1708
sS'algorithm'
p1709
g5
(g6
(S'S5'
I0
I1
tRp1710
(I3
S'|'
NNNI5
I1
I0
tbS'brute'
tRp1711
sa(dp1712
S'n_neighbors'
p1713
I5
sS'metric'
p1714
g5
(g6
(S'S9'
I0
I1
tRp1715
(I3
S'|'
NNNI9
I1
I0
tbS'manhattan'
tRp1716
sS'weights'
p1717
g5
(g6
(S'S7'
I0
I1
tRp1718
(I3
S'|'
NNNI7
I1
I0
tbS'uniform'
tRp1719
sS'algorithm'
p1720
g5
(g6
(S'S5'
I0
I1
tRp1721
(I3
S'|'
NNNI5
I1
I0
tbS'brute'
tRp1722
sa(dp1723
S'n_neighbors'
p1724
I10
sS'metric'
p1725
g5
(g6
(S'S9'
I0
I1
tRp1726
(I3
S'|'
NNNI9
I1
I0
tbS'manhattan'
tRp1727
sS'weights'
p1728
g5
(g6
(S'S7'
I0
I1
tRp1729
(I3
S'|'
NNNI7
I1
I0
tbS'uniform'
tRp1730
sS'algorithm'
p1731
g5
(g6
(S'S5'
I0
I1
tRp1732
(I3
S'|'
NNNI5
I1
I0
tbS'brute'
tRp1733
sa(dp1734
S'p'
I14
sS'metric'
p1735
g5
(g6
(S'S9'
I0
I1
tRp1736
(I3
S'|'
NNNI9
I1
I0
tbS'minkowski'
tRp1737
sS'weights'
p1738
g5
(g6
(S'S7'
I0
I1
tRp1739
(I3
S'|'
NNNI7
I1
I0
tbS'uniform'
tRp1740
sS'algorithm'
p1741
g5
(g6
(S'S5'
I0
I1
tRp1742
(I3
S'|'
NNNI5
I1
I0
tbS'brute'
tRp1743
sS'n_neighbors'
p1744
I10
sa(dp1745
S'p'
I3
sS'metric'
p1746
g5
(g6
(S'S9'
I0
I1
tRp1747
(I3
S'|'
NNNI9
I1
I0
tbS'minkowski'
tRp1748
sS'weights'
p1749
g5
(g6
(S'S7'
I0
I1
tRp1750
(I3
S'|'
NNNI7
I1
I0
tbS'uniform'
tRp1751
sS'algorithm'
p1752
g5
(g6
(S'S5'
I0
I1
tRp1753
(I3
S'|'
NNNI5
I1
I0
tbS'brute'
tRp1754
sS'n_neighbors'
p1755
I10
sa(dp1756
S'p'
I5
sS'metric'
p1757
g5
(g6
(S'S9'
I0
I1
tRp1758
(I3
S'|'
NNNI9
I1
I0
tbS'minkowski'
tRp1759
sS'weights'
p1760
g5
(g6
(S'S7'
I0
I1
tRp1761
(I3
S'|'
NNNI7
I1
I0
tbS'uniform'
tRp1762
sS'algorithm'
p1763
g5
(g6
(S'S5'
I0
I1
tRp1764
(I3
S'|'
NNNI5
I1
I0
tbS'brute'
tRp1765
sS'n_neighbors'
p1766
I3
sa(dp1767
S'p'
I4
sS'metric'
p1768
g5
(g6
(S'S9'
I0
I1
tRp1769
(I3
S'|'
NNNI9
I1
I0
tbS'minkowski'
tRp1770
sS'weights'
p1771
g5
(g6
(S'S7'
I0
I1
tRp1772
(I3
S'|'
NNNI7
I1
I0
tbS'uniform'
tRp1773
sS'algorithm'
p1774
g5
(g6
(S'S5'
I0
I1
tRp1775
(I3
S'|'
NNNI5
I1
I0
tbS'brute'
tRp1776
sS'n_neighbors'
p1777
I8
sa(dp1778
S'p'
I9
sS'metric'
p1779
g5
(g6
(S'S9'
I0
I1
tRp1780
(I3
S'|'
NNNI9
I1
I0
tbS'minkowski'
tRp1781
sS'weights'
p1782
g5
(g6
(S'S7'
I0
I1
tRp1783
(I3
S'|'
NNNI7
I1
I0
tbS'uniform'
tRp1784
sS'algorithm'
p1785
g5
(g6
(S'S5'
I0
I1
tRp1786
(I3
S'|'
NNNI5
I1
I0
tbS'brute'
tRp1787
sS'n_neighbors'
p1788
I2
sa(dp1789
S'p'
I4
sS'metric'
p1790
g5
(g6
(S'S9'
I0
I1
tRp1791
(I3
S'|'
NNNI9
I1
I0
tbS'minkowski'
tRp1792
sS'weights'
p1793
g5
(g6
(S'S7'
I0
I1
tRp1794
(I3
S'|'
NNNI7
I1
I0
tbS'uniform'
tRp1795
sS'algorithm'
p1796
g5
(g6
(S'S5'
I0
I1
tRp1797
(I3
S'|'
NNNI5
I1
I0
tbS'brute'
tRp1798
sS'n_neighbors'
p1799
I5
sa(dp1800
S'p'
I11
sS'metric'
p1801
g5
(g6
(S'S9'
I0
I1
tRp1802
(I3
S'|'
NNNI9
I1
I0
tbS'minkowski'
tRp1803
sS'weights'
p1804
g5
(g6
(S'S7'
I0
I1
tRp1805
(I3
S'|'
NNNI7
I1
I0
tbS'uniform'
tRp1806
sS'algorithm'
p1807
g5
(g6
(S'S5'
I0
I1
tRp1808
(I3
S'|'
NNNI5
I1
I0
tbS'brute'
tRp1809
sS'n_neighbors'
p1810
I4
sa(dp1811
S'p'
I2
sS'metric'
p1812
g5
(g6
(S'S9'
I0
I1
tRp1813
(I3
S'|'
NNNI9
I1
I0
tbS'minkowski'
tRp1814
sS'weights'
p1815
g5
(g6
(S'S7'
I0
I1
tRp1816
(I3
S'|'
NNNI7
I1
I0
tbS'uniform'
tRp1817
sS'algorithm'
p1818
g5
(g6
(S'S5'
I0
I1
tRp1819
(I3
S'|'
NNNI5
I1
I0
tbS'brute'
tRp1820
sS'n_neighbors'
p1821
I9
sa(dp1822
S'p'
I9
sS'metric'
p1823
g5
(g6
(S'S9'
I0
I1
tRp1824
(I3
S'|'
NNNI9
I1
I0
tbS'minkowski'
tRp1825
sS'weights'
p1826
g5
(g6
(S'S7'
I0
I1
tRp1827
(I3
S'|'
NNNI7
I1
I0
tbS'uniform'
tRp1828
sS'algorithm'
p1829
g5
(g6
(S'S5'
I0
I1
tRp1830
(I3
S'|'
NNNI5
I1
I0
tbS'brute'
tRp1831
sS'n_neighbors'
p1832
I7
sa(dp1833
S'p'
I2
sS'metric'
p1834
g5
(g6
(S'S9'
I0
I1
tRp1835
(I3
S'|'
NNNI9
I1
I0
tbS'minkowski'
tRp1836
sS'weights'
p1837
g5
(g6
(S'S7'
I0
I1
tRp1838
(I3
S'|'
NNNI7
I1
I0
tbS'uniform'
tRp1839
sS'algorithm'
p1840
g5
(g6
(S'S5'
I0
I1
tRp1841
(I3
S'|'
NNNI5
I1
I0
tbS'brute'
tRp1842
sS'n_neighbors'
p1843
I3
sa(dp1844
S'n_neighbors'
p1845
I12
sS'metric'
p1846
g5
(g6
(S'S9'
I0
I1
tRp1847
(I3
S'|'
NNNI9
I1
I0
tbS'chebyshev'
tRp1848
sS'weights'
p1849
g5
(g6
(S'S8'
I0
I1
tRp1850
(I3
S'|'
NNNI8
I1
I0
tbS'distance'
tRp1851
sS'leaf_size'
p1852
I18
sS'algorithm'
p1853
g5
(g6
(S'S9'
I0
I1
tRp1854
(I3
S'|'
NNNI9
I1
I0
tbS'ball_tree'
tRp1855
sa(dp1856
S'n_neighbors'
p1857
I6
sS'metric'
p1858
g5
(g6
(S'S9'
I0
I1
tRp1859
(I3
S'|'
NNNI9
I1
I0
tbS'chebyshev'
tRp1860
sS'weights'
p1861
g5
(g6
(S'S8'
I0
I1
tRp1862
(I3
S'|'
NNNI8
I1
I0
tbS'distance'
tRp1863
sS'leaf_size'
p1864
I15
sS'algorithm'
p1865
g5
(g6
(S'S9'
I0
I1
tRp1866
(I3
S'|'
NNNI9
I1
I0
tbS'ball_tree'
tRp1867
sa(dp1868
S'n_neighbors'
p1869
I9
sS'metric'
p1870
g5
(g6
(S'S9'
I0
I1
tRp1871
(I3
S'|'
NNNI9
I1
I0
tbS'chebyshev'
tRp1872
sS'weights'
p1873
g5
(g6
(S'S8'
I0
I1
tRp1874
(I3
S'|'
NNNI8
I1
I0
tbS'distance'
tRp1875
sS'leaf_size'
p1876
I44
sS'algorithm'
p1877
g5
(g6
(S'S9'
I0
I1
tRp1878
(I3
S'|'
NNNI9
I1
I0
tbS'ball_tree'
tRp1879
sa(dp1880
S'n_neighbors'
p1881
I4
sS'metric'
p1882
g5
(g6
(S'S9'
I0
I1
tRp1883
(I3
S'|'
NNNI9
I1
I0
tbS'chebyshev'
tRp1884
sS'weights'
p1885
g5
(g6
(S'S8'
I0
I1
tRp1886
(I3
S'|'
NNNI8
I1
I0
tbS'distance'
tRp1887
sS'leaf_size'
p1888
I39
sS'algorithm'
p1889
g5
(g6
(S'S9'
I0
I1
tRp1890
(I3
S'|'
NNNI9
I1
I0
tbS'ball_tree'
tRp1891
sa(dp1892
S'n_neighbors'
p1893
I5
sS'metric'
p1894
g5
(g6
(S'S9'
I0
I1
tRp1895
(I3
S'|'
NNNI9
I1
I0
tbS'chebyshev'
tRp1896
sS'weights'
p1897
g5
(g6
(S'S8'
I0
I1
tRp1898
(I3
S'|'
NNNI8
I1
I0
tbS'distance'
tRp1899
sS'leaf_size'
p1900
I16
sS'algorithm'
p1901
g5
(g6
(S'S9'
I0
I1
tRp1902
(I3
S'|'
NNNI9
I1
I0
tbS'ball_tree'
tRp1903
sa(dp1904
S'n_neighbors'
p1905
I6
sS'metric'
p1906
g5
(g6
(S'S9'
I0
I1
tRp1907
(I3
S'|'
NNNI9
I1
I0
tbS'chebyshev'
tRp1908
sS'weights'
p1909
g5
(g6
(S'S8'
I0
I1
tRp1910
(I3
S'|'
NNNI8
I1
I0
tbS'distance'
tRp1911
sS'leaf_size'
p1912
I39
sS'algorithm'
p1913
g5
(g6
(S'S9'
I0
I1
tRp1914
(I3
S'|'
NNNI9
I1
I0
tbS'ball_tree'
tRp1915
sa(dp1916
S'n_neighbors'
p1917
I3
sS'metric'
p1918
g5
(g6
(S'S9'
I0
I1
tRp1919
(I3
S'|'
NNNI9
I1
I0
tbS'chebyshev'
tRp1920
sS'weights'
p1921
g5
(g6
(S'S8'
I0
I1
tRp1922
(I3
S'|'
NNNI8
I1
I0
tbS'distance'
tRp1923
sS'leaf_size'
p1924
I18
sS'algorithm'
p1925
g5
(g6
(S'S9'
I0
I1
tRp1926
(I3
S'|'
NNNI9
I1
I0
tbS'ball_tree'
tRp1927
sa(dp1928
S'n_neighbors'
p1929
I11
sS'metric'
p1930
g5
(g6
(S'S9'
I0
I1
tRp1931
(I3
S'|'
NNNI9
I1
I0
tbS'chebyshev'
tRp1932
sS'weights'
p1933
g5
(g6
(S'S8'
I0
I1
tRp1934
(I3
S'|'
NNNI8
I1
I0
tbS'distance'
tRp1935
sS'leaf_size'
p1936
I17
sS'algorithm'
p1937
g5
(g6
(S'S9'
I0
I1
tRp1938
(I3
S'|'
NNNI9
I1
I0
tbS'ball_tree'
tRp1939
sa(dp1940
S'n_neighbors'
p1941
I5
sS'metric'
p1942
g5
(g6
(S'S9'
I0
I1
tRp1943
(I3
S'|'
NNNI9
I1
I0
tbS'chebyshev'
tRp1944
sS'weights'
p1945
g5
(g6
(S'S8'
I0
I1
tRp1946
(I3
S'|'
NNNI8
I1
I0
tbS'distance'
tRp1947
sS'leaf_size'
p1948
I45
sS'algorithm'
p1949
g5
(g6
(S'S9'
I0
I1
tRp1950
(I3
S'|'
NNNI9
I1
I0
tbS'ball_tree'
tRp1951
sa(dp1952
S'n_neighbors'
p1953
I1
sS'metric'
p1954
g5
(g6
(S'S9'
I0
I1
tRp1955
(I3
S'|'
NNNI9
I1
I0
tbS'chebyshev'
tRp1956
sS'weights'
p1957
g5
(g6
(S'S8'
I0
I1
tRp1958
(I3
S'|'
NNNI8
I1
I0
tbS'distance'
tRp1959
sS'leaf_size'
p1960
I15
sS'algorithm'
p1961
g5
(g6
(S'S9'
I0
I1
tRp1962
(I3
S'|'
NNNI9
I1
I0
tbS'ball_tree'
tRp1963
sa(dp1964
S'n_neighbors'
p1965
I5
sS'metric'
p1966
g5
(g6
(S'S9'
I0
I1
tRp1967
(I3
S'|'
NNNI9
I1
I0
tbS'euclidean'
tRp1968
sS'weights'
p1969
g5
(g6
(S'S8'
I0
I1
tRp1970
(I3
S'|'
NNNI8
I1
I0
tbS'distance'
tRp1971
sS'leaf_size'
p1972
I19
sS'algorithm'
p1973
g5
(g6
(S'S9'
I0
I1
tRp1974
(I3
S'|'
NNNI9
I1
I0
tbS'ball_tree'
tRp1975
sa(dp1976
S'n_neighbors'
p1977
I1
sS'metric'
p1978
g5
(g6
(S'S9'
I0
I1
tRp1979
(I3
S'|'
NNNI9
I1
I0
tbS'euclidean'
tRp1980
sS'weights'
p1981
g5
(g6
(S'S8'
I0
I1
tRp1982
(I3
S'|'
NNNI8
I1
I0
tbS'distance'
tRp1983
sS'leaf_size'
p1984
I36
sS'algorithm'
p1985
g5
(g6
(S'S9'
I0
I1
tRp1986
(I3
S'|'
NNNI9
I1
I0
tbS'ball_tree'
tRp1987
sa(dp1988
S'n_neighbors'
p1989
I9
sS'metric'
p1990
g5
(g6
(S'S9'
I0
I1
tRp1991
(I3
S'|'
NNNI9
I1
I0
tbS'euclidean'
tRp1992
sS'weights'
p1993
g5
(g6
(S'S8'
I0
I1
tRp1994
(I3
S'|'
NNNI8
I1
I0
tbS'distance'
tRp1995
sS'leaf_size'
p1996
I30
sS'algorithm'
p1997
g5
(g6
(S'S9'
I0
I1
tRp1998
(I3
S'|'
NNNI9
I1
I0
tbS'ball_tree'
tRp1999
sa(dp2000
S'n_neighbors'
p2001
I6
sS'metric'
p2002
g5
(g6
(S'S9'
I0
I1
tRp2003
(I3
S'|'
NNNI9
I1
I0
tbS'euclidean'
tRp2004
sS'weights'
p2005
g5
(g6
(S'S8'
I0
I1
tRp2006
(I3
S'|'
NNNI8
I1
I0
tbS'distance'
tRp2007
sS'leaf_size'
p2008
I17
sS'algorithm'
p2009
g5
(g6
(S'S9'
I0
I1
tRp2010
(I3
S'|'
NNNI9
I1
I0
tbS'ball_tree'
tRp2011
sa(dp2012
S'n_neighbors'
p2013
I10
sS'metric'
p2014
g5
(g6
(S'S9'
I0
I1
tRp2015
(I3
S'|'
NNNI9
I1
I0
tbS'euclidean'
tRp2016
sS'weights'
p2017
g5
(g6
(S'S8'
I0
I1
tRp2018
(I3
S'|'
NNNI8
I1
I0
tbS'distance'
tRp2019
sS'leaf_size'
p2020
I21
sS'algorithm'
p2021
g5
(g6
(S'S9'
I0
I1
tRp2022
(I3
S'|'
NNNI9
I1
I0
tbS'ball_tree'
tRp2023
sa(dp2024
S'n_neighbors'
p2025
I8
sS'metric'
p2026
g5
(g6
(S'S9'
I0
I1
tRp2027
(I3
S'|'
NNNI9
I1
I0
tbS'euclidean'
tRp2028
sS'weights'
p2029
g5
(g6
(S'S8'
I0
I1
tRp2030
(I3
S'|'
NNNI8
I1
I0
tbS'distance'
tRp2031
sS'leaf_size'
p2032
I18
sS'algorithm'
p2033
g5
(g6
(S'S9'
I0
I1
tRp2034
(I3
S'|'
NNNI9
I1
I0
tbS'ball_tree'
tRp2035
sa(dp2036
S'n_neighbors'
p2037
I4
sS'metric'
p2038
g5
(g6
(S'S9'
I0
I1
tRp2039
(I3
S'|'
NNNI9
I1
I0
tbS'euclidean'
tRp2040
sS'weights'
p2041
g5
(g6
(S'S8'
I0
I1
tRp2042
(I3
S'|'
NNNI8
I1
I0
tbS'distance'
tRp2043
sS'leaf_size'
p2044
I16
sS'algorithm'
p2045
g5
(g6
(S'S9'
I0
I1
tRp2046
(I3
S'|'
NNNI9
I1
I0
tbS'ball_tree'
tRp2047
sa(dp2048
S'n_neighbors'
p2049
I7
sS'metric'
p2050
g5
(g6
(S'S9'
I0
I1
tRp2051
(I3
S'|'
NNNI9
I1
I0
tbS'euclidean'
tRp2052
sS'weights'
p2053
g5
(g6
(S'S8'
I0
I1
tRp2054
(I3
S'|'
NNNI8
I1
I0
tbS'distance'
tRp2055
sS'leaf_size'
p2056
I16
sS'algorithm'
p2057
g5
(g6
(S'S9'
I0
I1
tRp2058
(I3
S'|'
NNNI9
I1
I0
tbS'ball_tree'
tRp2059
sa(dp2060
S'n_neighbors'
p2061
I12
sS'metric'
p2062
g5
(g6
(S'S9'
I0
I1
tRp2063
(I3
S'|'
NNNI9
I1
I0
tbS'euclidean'
tRp2064
sS'weights'
p2065
g5
(g6
(S'S8'
I0
I1
tRp2066
(I3
S'|'
NNNI8
I1
I0
tbS'distance'
tRp2067
sS'leaf_size'
p2068
I42
sS'algorithm'
p2069
g5
(g6
(S'S9'
I0
I1
tRp2070
(I3
S'|'
NNNI9
I1
I0
tbS'ball_tree'
tRp2071
sa(dp2072
S'n_neighbors'
p2073
I3
sS'metric'
p2074
g5
(g6
(S'S9'
I0
I1
tRp2075
(I3
S'|'
NNNI9
I1
I0
tbS'euclidean'
tRp2076
sS'weights'
p2077
g5
(g6
(S'S8'
I0
I1
tRp2078
(I3
S'|'
NNNI8
I1
I0
tbS'distance'
tRp2079
sS'leaf_size'
p2080
I43
sS'algorithm'
p2081
g5
(g6
(S'S9'
I0
I1
tRp2082
(I3
S'|'
NNNI9
I1
I0
tbS'ball_tree'
tRp2083
sa(dp2084
S'n_neighbors'
p2085
I7
sS'metric'
p2086
g5
(g6
(S'S9'
I0
I1
tRp2087
(I3
S'|'
NNNI9
I1
I0
tbS'manhattan'
tRp2088
sS'weights'
p2089
g5
(g6
(S'S8'
I0
I1
tRp2090
(I3
S'|'
NNNI8
I1
I0
tbS'distance'
tRp2091
sS'leaf_size'
p2092
I21
sS'algorithm'
p2093
g5
(g6
(S'S9'
I0
I1
tRp2094
(I3
S'|'
NNNI9
I1
I0
tbS'ball_tree'
tRp2095
sa(dp2096
S'n_neighbors'
p2097
I2
sS'metric'
p2098
g5
(g6
(S'S9'
I0
I1
tRp2099
(I3
S'|'
NNNI9
I1
I0
tbS'manhattan'
tRp2100
sS'weights'
p2101
g5
(g6
(S'S8'
I0
I1
tRp2102
(I3
S'|'
NNNI8
I1
I0
tbS'distance'
tRp2103
sS'leaf_size'
p2104
I16
sS'algorithm'
p2105
g5
(g6
(S'S9'
I0
I1
tRp2106
(I3
S'|'
NNNI9
I1
I0
tbS'ball_tree'
tRp2107
sa(dp2108
S'n_neighbors'
p2109
I9
sS'metric'
p2110
g5
(g6
(S'S9'
I0
I1
tRp2111
(I3
S'|'
NNNI9
I1
I0
tbS'manhattan'
tRp2112
sS'weights'
p2113
g5
(g6
(S'S8'
I0
I1
tRp2114
(I3
S'|'
NNNI8
I1
I0
tbS'distance'
tRp2115
sS'leaf_size'
p2116
I31
sS'algorithm'
p2117
g5
(g6
(S'S9'
I0
I1
tRp2118
(I3
S'|'
NNNI9
I1
I0
tbS'ball_tree'
tRp2119
sa(dp2120
S'n_neighbors'
p2121
I5
sS'metric'
p2122
g5
(g6
(S'S9'
I0
I1
tRp2123
(I3
S'|'
NNNI9
I1
I0
tbS'manhattan'
tRp2124
sS'weights'
p2125
g5
(g6
(S'S8'
I0
I1
tRp2126
(I3
S'|'
NNNI8
I1
I0
tbS'distance'
tRp2127
sS'leaf_size'
p2128
I44
sS'algorithm'
p2129
g5
(g6
(S'S9'
I0
I1
tRp2130
(I3
S'|'
NNNI9
I1
I0
tbS'ball_tree'
tRp2131
sa(dp2132
S'n_neighbors'
p2133
I11
sS'metric'
p2134
g5
(g6
(S'S9'
I0
I1
tRp2135
(I3
S'|'
NNNI9
I1
I0
tbS'manhattan'
tRp2136
sS'weights'
p2137
g5
(g6
(S'S8'
I0
I1
tRp2138
(I3
S'|'
NNNI8
I1
I0
tbS'distance'
tRp2139
sS'leaf_size'
p2140
I44
sS'algorithm'
p2141
g5
(g6
(S'S9'
I0
I1
tRp2142
(I3
S'|'
NNNI9
I1
I0
tbS'ball_tree'
tRp2143
sa(dp2144
S'n_neighbors'
p2145
I8
sS'metric'
p2146
g5
(g6
(S'S9'
I0
I1
tRp2147
(I3
S'|'
NNNI9
I1
I0
tbS'manhattan'
tRp2148
sS'weights'
p2149
g5
(g6
(S'S8'
I0
I1
tRp2150
(I3
S'|'
NNNI8
I1
I0
tbS'distance'
tRp2151
sS'leaf_size'
p2152
I43
sS'algorithm'
p2153
g5
(g6
(S'S9'
I0
I1
tRp2154
(I3
S'|'
NNNI9
I1
I0
tbS'ball_tree'
tRp2155
sa(dp2156
S'n_neighbors'
p2157
I5
sS'metric'
p2158
g5
(g6
(S'S9'
I0
I1
tRp2159
(I3
S'|'
NNNI9
I1
I0
tbS'manhattan'
tRp2160
sS'weights'
p2161
g5
(g6
(S'S8'
I0
I1
tRp2162
(I3
S'|'
NNNI8
I1
I0
tbS'distance'
tRp2163
sS'leaf_size'
p2164
I17
sS'algorithm'
p2165
g5
(g6
(S'S9'
I0
I1
tRp2166
(I3
S'|'
NNNI9
I1
I0
tbS'ball_tree'
tRp2167
sa(dp2168
S'n_neighbors'
p2169
I4
sS'metric'
p2170
g5
(g6
(S'S9'
I0
I1
tRp2171
(I3
S'|'
NNNI9
I1
I0
tbS'manhattan'
tRp2172
sS'weights'
p2173
g5
(g6
(S'S8'
I0
I1
tRp2174
(I3
S'|'
NNNI8
I1
I0
tbS'distance'
tRp2175
sS'leaf_size'
p2176
I44
sS'algorithm'
p2177
g5
(g6
(S'S9'
I0
I1
tRp2178
(I3
S'|'
NNNI9
I1
I0
tbS'ball_tree'
tRp2179
sa(dp2180
S'n_neighbors'
p2181
I3
sS'metric'
p2182
g5
(g6
(S'S9'
I0
I1
tRp2183
(I3
S'|'
NNNI9
I1
I0
tbS'manhattan'
tRp2184
sS'weights'
p2185
g5
(g6
(S'S8'
I0
I1
tRp2186
(I3
S'|'
NNNI8
I1
I0
tbS'distance'
tRp2187
sS'leaf_size'
p2188
I32
sS'algorithm'
p2189
g5
(g6
(S'S9'
I0
I1
tRp2190
(I3
S'|'
NNNI9
I1
I0
tbS'ball_tree'
tRp2191
sa(dp2192
S'n_neighbors'
p2193
I8
sS'metric'
p2194
g5
(g6
(S'S9'
I0
I1
tRp2195
(I3
S'|'
NNNI9
I1
I0
tbS'manhattan'
tRp2196
sS'weights'
p2197
g5
(g6
(S'S8'
I0
I1
tRp2198
(I3
S'|'
NNNI8
I1
I0
tbS'distance'
tRp2199
sS'leaf_size'
p2200
I17
sS'algorithm'
p2201
g5
(g6
(S'S9'
I0
I1
tRp2202
(I3
S'|'
NNNI9
I1
I0
tbS'ball_tree'
tRp2203
sa(dp2204
S'n_neighbors'
p2205
I3
sS'algorithm'
p2206
g5
(g6
(S'S9'
I0
I1
tRp2207
(I3
S'|'
NNNI9
I1
I0
tbS'ball_tree'
tRp2208
sS'metric'
p2209
g5
(g6
(S'S9'
I0
I1
tRp2210
(I3
S'|'
NNNI9
I1
I0
tbS'minkowski'
tRp2211
sS'p'
I19
sS'weights'
p2212
g5
(g6
(S'S8'
I0
I1
tRp2213
(I3
S'|'
NNNI8
I1
I0
tbS'distance'
tRp2214
sS'leaf_size'
p2215
I22
sa(dp2216
S'n_neighbors'
p2217
I8
sS'algorithm'
p2218
g5
(g6
(S'S9'
I0
I1
tRp2219
(I3
S'|'
NNNI9
I1
I0
tbS'ball_tree'
tRp2220
sS'metric'
p2221
g5
(g6
(S'S9'
I0
I1
tRp2222
(I3
S'|'
NNNI9
I1
I0
tbS'minkowski'
tRp2223
sS'p'
I1
sS'weights'
p2224
g5
(g6
(S'S8'
I0
I1
tRp2225
(I3
S'|'
NNNI8
I1
I0
tbS'distance'
tRp2226
sS'leaf_size'
p2227
I44
sa(dp2228
S'n_neighbors'
p2229
I3
sS'algorithm'
p2230
g5
(g6
(S'S9'
I0
I1
tRp2231
(I3
S'|'
NNNI9
I1
I0
tbS'ball_tree'
tRp2232
sS'metric'
p2233
g5
(g6
(S'S9'
I0
I1
tRp2234
(I3
S'|'
NNNI9
I1
I0
tbS'minkowski'
tRp2235
sS'p'
I4
sS'weights'
p2236
g5
(g6
(S'S8'
I0
I1
tRp2237
(I3
S'|'
NNNI8
I1
I0
tbS'distance'
tRp2238
sS'leaf_size'
p2239
I43
sa(dp2240
S'n_neighbors'
p2241
I1
sS'algorithm'
p2242
g5
(g6
(S'S9'
I0
I1
tRp2243
(I3
S'|'
NNNI9
I1
I0
tbS'ball_tree'
tRp2244
sS'metric'
p2245
g5
(g6
(S'S9'
I0
I1
tRp2246
(I3
S'|'
NNNI9
I1
I0
tbS'minkowski'
tRp2247
sS'p'
I6
sS'weights'
p2248
g5
(g6
(S'S8'
I0
I1
tRp2249
(I3
S'|'
NNNI8
I1
I0
tbS'distance'
tRp2250
sS'leaf_size'
p2251
I22
sa(dp2252
S'n_neighbors'
p2253
I1
sS'algorithm'
p2254
g5
(g6
(S'S9'
I0
I1
tRp2255
(I3
S'|'
NNNI9
I1
I0
tbS'ball_tree'
tRp2256
sS'metric'
p2257
g5
(g6
(S'S9'
I0
I1
tRp2258
(I3
S'|'
NNNI9
I1
I0
tbS'minkowski'
tRp2259
sS'p'
I2
sS'weights'
p2260
g5
(g6
(S'S8'
I0
I1
tRp2261
(I3
S'|'
NNNI8
I1
I0
tbS'distance'
tRp2262
sS'leaf_size'
p2263
I15
sa(dp2264
S'n_neighbors'
p2265
I7
sS'algorithm'
p2266
g5
(g6
(S'S9'
I0
I1
tRp2267
(I3
S'|'
NNNI9
I1
I0
tbS'ball_tree'
tRp2268
sS'metric'
p2269
g5
(g6
(S'S9'
I0
I1
tRp2270
(I3
S'|'
NNNI9
I1
I0
tbS'minkowski'
tRp2271
sS'p'
I5
sS'weights'
p2272
g5
(g6
(S'S8'
I0
I1
tRp2273
(I3
S'|'
NNNI8
I1
I0
tbS'distance'
tRp2274
sS'leaf_size'
p2275
I31
sa(dp2276
S'n_neighbors'
p2277
I7
sS'algorithm'
p2278
g5
(g6
(S'S9'
I0
I1
tRp2279
(I3
S'|'
NNNI9
I1
I0
tbS'ball_tree'
tRp2280
sS'metric'
p2281
g5
(g6
(S'S9'
I0
I1
tRp2282
(I3
S'|'
NNNI9
I1
I0
tbS'minkowski'
tRp2283
sS'p'
I2
sS'weights'
p2284
g5
(g6
(S'S8'
I0
I1
tRp2285
(I3
S'|'
NNNI8
I1
I0
tbS'distance'
tRp2286
sS'leaf_size'
p2287
I45
sa(dp2288
S'n_neighbors'
p2289
I5
sS'algorithm'
p2290
g5
(g6
(S'S9'
I0
I1
tRp2291
(I3
S'|'
NNNI9
I1
I0
tbS'ball_tree'
tRp2292
sS'metric'
p2293
g5
(g6
(S'S9'
I0
I1
tRp2294
(I3
S'|'
NNNI9
I1
I0
tbS'minkowski'
tRp2295
sS'p'
I3
sS'weights'
p2296
g5
(g6
(S'S8'
I0
I1
tRp2297
(I3
S'|'
NNNI8
I1
I0
tbS'distance'
tRp2298
sS'leaf_size'
p2299
I39
sa(dp2300
S'n_neighbors'
p2301
I6
sS'algorithm'
p2302
g5
(g6
(S'S9'
I0
I1
tRp2303
(I3
S'|'
NNNI9
I1
I0
tbS'ball_tree'
tRp2304
sS'metric'
p2305
g5
(g6
(S'S9'
I0
I1
tRp2306
(I3
S'|'
NNNI9
I1
I0
tbS'minkowski'
tRp2307
sS'p'
I7
sS'weights'
p2308
g5
(g6
(S'S8'
I0
I1
tRp2309
(I3
S'|'
NNNI8
I1
I0
tbS'distance'
tRp2310
sS'leaf_size'
p2311
I32
sa(dp2312
S'n_neighbors'
p2313
I5
sS'algorithm'
p2314
g5
(g6
(S'S9'
I0
I1
tRp2315
(I3
S'|'
NNNI9
I1
I0
tbS'ball_tree'
tRp2316
sS'metric'
p2317
g5
(g6
(S'S9'
I0
I1
tRp2318
(I3
S'|'
NNNI9
I1
I0
tbS'minkowski'
tRp2319
sS'p'
I1
sS'weights'
p2320
g5
(g6
(S'S8'
I0
I1
tRp2321
(I3
S'|'
NNNI8
I1
I0
tbS'distance'
tRp2322
sS'leaf_size'
p2323
I42
sa(dp2324
S'n_neighbors'
p2325
I3
sS'metric'
p2326
g5
(g6
(S'S9'
I0
I1
tRp2327
(I3
S'|'
NNNI9
I1
I0
tbS'chebyshev'
tRp2328
sS'weights'
p2329
g5
(g6
(S'S7'
I0
I1
tRp2330
(I3
S'|'
NNNI7
I1
I0
tbS'uniform'
tRp2331
sS'leaf_size'
p2332
I18
sS'algorithm'
p2333
g5
(g6
(S'S9'
I0
I1
tRp2334
(I3
S'|'
NNNI9
I1
I0
tbS'ball_tree'
tRp2335
sa(dp2336
S'n_neighbors'
p2337
I2
sS'metric'
p2338
g5
(g6
(S'S9'
I0
I1
tRp2339
(I3
S'|'
NNNI9
I1
I0
tbS'chebyshev'
tRp2340
sS'weights'
p2341
g5
(g6
(S'S7'
I0
I1
tRp2342
(I3
S'|'
NNNI7
I1
I0
tbS'uniform'
tRp2343
sS'leaf_size'
p2344
I25
sS'algorithm'
p2345
g5
(g6
(S'S9'
I0
I1
tRp2346
(I3
S'|'
NNNI9
I1
I0
tbS'ball_tree'
tRp2347
sa(dp2348
S'n_neighbors'
p2349
I10
sS'metric'
p2350
g5
(g6
(S'S9'
I0
I1
tRp2351
(I3
S'|'
NNNI9
I1
I0
tbS'chebyshev'
tRp2352
sS'weights'
p2353
g5
(g6
(S'S7'
I0
I1
tRp2354
(I3
S'|'
NNNI7
I1
I0
tbS'uniform'
tRp2355
sS'leaf_size'
p2356
I38
sS'algorithm'
p2357
g5
(g6
(S'S9'
I0
I1
tRp2358
(I3
S'|'
NNNI9
I1
I0
tbS'ball_tree'
tRp2359
sa(dp2360
S'n_neighbors'
p2361
I6
sS'metric'
p2362
g5
(g6
(S'S9'
I0
I1
tRp2363
(I3
S'|'
NNNI9
I1
I0
tbS'chebyshev'
tRp2364
sS'weights'
p2365
g5
(g6
(S'S7'
I0
I1
tRp2366
(I3
S'|'
NNNI7
I1
I0
tbS'uniform'
tRp2367
sS'leaf_size'
p2368
I24
sS'algorithm'
p2369
g5
(g6
(S'S9'
I0
I1
tRp2370
(I3
S'|'
NNNI9
I1
I0
tbS'ball_tree'
tRp2371
sa(dp2372
S'n_neighbors'
p2373
I5
sS'metric'
p2374
g5
(g6
(S'S9'
I0
I1
tRp2375
(I3
S'|'
NNNI9
I1
I0
tbS'chebyshev'
tRp2376
sS'weights'
p2377
g5
(g6
(S'S7'
I0
I1
tRp2378
(I3
S'|'
NNNI7
I1
I0
tbS'uniform'
tRp2379
sS'leaf_size'
p2380
I45
sS'algorithm'
p2381
g5
(g6
(S'S9'
I0
I1
tRp2382
(I3
S'|'
NNNI9
I1
I0
tbS'ball_tree'
tRp2383
sa(dp2384
S'n_neighbors'
p2385
I12
sS'metric'
p2386
g5
(g6
(S'S9'
I0
I1
tRp2387
(I3
S'|'
NNNI9
I1
I0
tbS'chebyshev'
tRp2388
sS'weights'
p2389
g5
(g6
(S'S7'
I0
I1
tRp2390
(I3
S'|'
NNNI7
I1
I0
tbS'uniform'
tRp2391
sS'leaf_size'
p2392
I22
sS'algorithm'
p2393
g5
(g6
(S'S9'
I0
I1
tRp2394
(I3
S'|'
NNNI9
I1
I0
tbS'ball_tree'
tRp2395
sa(dp2396
S'n_neighbors'
p2397
I8
sS'metric'
p2398
g5
(g6
(S'S9'
I0
I1
tRp2399
(I3
S'|'
NNNI9
I1
I0
tbS'chebyshev'
tRp2400
sS'weights'
p2401
g5
(g6
(S'S7'
I0
I1
tRp2402
(I3
S'|'
NNNI7
I1
I0
tbS'uniform'
tRp2403
sS'leaf_size'
p2404
I44
sS'algorithm'
p2405
g5
(g6
(S'S9'
I0
I1
tRp2406
(I3
S'|'
NNNI9
I1
I0
tbS'ball_tree'
tRp2407
sa(dp2408
S'n_neighbors'
p2409
I12
sS'metric'
p2410
g5
(g6
(S'S9'
I0
I1
tRp2411
(I3
S'|'
NNNI9
I1
I0
tbS'chebyshev'
tRp2412
sS'weights'
p2413
g5
(g6
(S'S7'
I0
I1
tRp2414
(I3
S'|'
NNNI7
I1
I0
tbS'uniform'
tRp2415
sS'leaf_size'
p2416
I42
sS'algorithm'
p2417
g5
(g6
(S'S9'
I0
I1
tRp2418
(I3
S'|'
NNNI9
I1
I0
tbS'ball_tree'
tRp2419
sa(dp2420
S'n_neighbors'
p2421
I3
sS'metric'
p2422
g5
(g6
(S'S9'
I0
I1
tRp2423
(I3
S'|'
NNNI9
I1
I0
tbS'chebyshev'
tRp2424
sS'weights'
p2425
g5
(g6
(S'S7'
I0
I1
tRp2426
(I3
S'|'
NNNI7
I1
I0
tbS'uniform'
tRp2427
sS'leaf_size'
p2428
I44
sS'algorithm'
p2429
g5
(g6
(S'S9'
I0
I1
tRp2430
(I3
S'|'
NNNI9
I1
I0
tbS'ball_tree'
tRp2431
sa(dp2432
S'n_neighbors'
p2433
I2
sS'metric'
p2434
g5
(g6
(S'S9'
I0
I1
tRp2435
(I3
S'|'
NNNI9
I1
I0
tbS'chebyshev'
tRp2436
sS'weights'
p2437
g5
(g6
(S'S7'
I0
I1
tRp2438
(I3
S'|'
NNNI7
I1
I0
tbS'uniform'
tRp2439
sS'leaf_size'
p2440
I42
sS'algorithm'
p2441
g5
(g6
(S'S9'
I0
I1
tRp2442
(I3
S'|'
NNNI9
I1
I0
tbS'ball_tree'
tRp2443
sa(dp2444
S'n_neighbors'
p2445
I2
sS'metric'
p2446
g5
(g6
(S'S9'
I0
I1
tRp2447
(I3
S'|'
NNNI9
I1
I0
tbS'euclidean'
tRp2448
sS'weights'
p2449
g5
(g6
(S'S7'
I0
I1
tRp2450
(I3
S'|'
NNNI7
I1
I0
tbS'uniform'
tRp2451
sS'leaf_size'
p2452
I36
sS'algorithm'
p2453
g5
(g6
(S'S9'
I0
I1
tRp2454
(I3
S'|'
NNNI9
I1
I0
tbS'ball_tree'
tRp2455
sa(dp2456
S'n_neighbors'
p2457
I7
sS'metric'
p2458
g5
(g6
(S'S9'
I0
I1
tRp2459
(I3
S'|'
NNNI9
I1
I0
tbS'euclidean'
tRp2460
sS'weights'
p2461
g5
(g6
(S'S7'
I0
I1
tRp2462
(I3
S'|'
NNNI7
I1
I0
tbS'uniform'
tRp2463
sS'leaf_size'
p2464
I31
sS'algorithm'
p2465
g5
(g6
(S'S9'
I0
I1
tRp2466
(I3
S'|'
NNNI9
I1
I0
tbS'ball_tree'
tRp2467
sa(dp2468
S'n_neighbors'
p2469
I5
sS'metric'
p2470
g5
(g6
(S'S9'
I0
I1
tRp2471
(I3
S'|'
NNNI9
I1
I0
tbS'euclidean'
tRp2472
sS'weights'
p2473
g5
(g6
(S'S7'
I0
I1
tRp2474
(I3
S'|'
NNNI7
I1
I0
tbS'uniform'
tRp2475
sS'leaf_size'
p2476
I38
sS'algorithm'
p2477
g5
(g6
(S'S9'
I0
I1
tRp2478
(I3
S'|'
NNNI9
I1
I0
tbS'ball_tree'
tRp2479
sa(dp2480
S'n_neighbors'
p2481
I12
sS'metric'
p2482
g5
(g6
(S'S9'
I0
I1
tRp2483
(I3
S'|'
NNNI9
I1
I0
tbS'euclidean'
tRp2484
sS'weights'
p2485
g5
(g6
(S'S7'
I0
I1
tRp2486
(I3
S'|'
NNNI7
I1
I0
tbS'uniform'
tRp2487
sS'leaf_size'
p2488
I35
sS'algorithm'
p2489
g5
(g6
(S'S9'
I0
I1
tRp2490
(I3
S'|'
NNNI9
I1
I0
tbS'ball_tree'
tRp2491
sa(dp2492
S'n_neighbors'
p2493
I9
sS'metric'
p2494
g5
(g6
(S'S9'
I0
I1
tRp2495
(I3
S'|'
NNNI9
I1
I0
tbS'euclidean'
tRp2496
sS'weights'
p2497
g5
(g6
(S'S7'
I0
I1
tRp2498
(I3
S'|'
NNNI7
I1
I0
tbS'uniform'
tRp2499
sS'leaf_size'
p2500
I32
sS'algorithm'
p2501
g5
(g6
(S'S9'
I0
I1
tRp2502
(I3
S'|'
NNNI9
I1
I0
tbS'ball_tree'
tRp2503
sa(dp2504
S'n_neighbors'
p2505
I3
sS'metric'
p2506
g5
(g6
(S'S9'
I0
I1
tRp2507
(I3
S'|'
NNNI9
I1
I0
tbS'euclidean'
tRp2508
sS'weights'
p2509
g5
(g6
(S'S7'
I0
I1
tRp2510
(I3
S'|'
NNNI7
I1
I0
tbS'uniform'
tRp2511
sS'leaf_size'
p2512
I30
sS'algorithm'
p2513
g5
(g6
(S'S9'
I0
I1
tRp2514
(I3
S'|'
NNNI9
I1
I0
tbS'ball_tree'
tRp2515
sa(dp2516
S'n_neighbors'
p2517
I8
sS'metric'
p2518
g5
(g6
(S'S9'
I0
I1
tRp2519
(I3
S'|'
NNNI9
I1
I0
tbS'euclidean'
tRp2520
sS'weights'
p2521
g5
(g6
(S'S7'
I0
I1
tRp2522
(I3
S'|'
NNNI7
I1
I0
tbS'uniform'
tRp2523
sS'leaf_size'
p2524
I31
sS'algorithm'
p2525
g5
(g6
(S'S9'
I0
I1
tRp2526
(I3
S'|'
NNNI9
I1
I0
tbS'ball_tree'
tRp2527
sa(dp2528
S'n_neighbors'
p2529
I10
sS'metric'
p2530
g5
(g6
(S'S9'
I0
I1
tRp2531
(I3
S'|'
NNNI9
I1
I0
tbS'euclidean'
tRp2532
sS'weights'
p2533
g5
(g6
(S'S7'
I0
I1
tRp2534
(I3
S'|'
NNNI7
I1
I0
tbS'uniform'
tRp2535
sS'leaf_size'
p2536
I20
sS'algorithm'
p2537
g5
(g6
(S'S9'
I0
I1
tRp2538
(I3
S'|'
NNNI9
I1
I0
tbS'ball_tree'
tRp2539
sa(dp2540
S'n_neighbors'
p2541
I6
sS'metric'
p2542
g5
(g6
(S'S9'
I0
I1
tRp2543
(I3
S'|'
NNNI9
I1
I0
tbS'euclidean'
tRp2544
sS'weights'
p2545
g5
(g6
(S'S7'
I0
I1
tRp2546
(I3
S'|'
NNNI7
I1
I0
tbS'uniform'
tRp2547
sS'leaf_size'
p2548
I37
sS'algorithm'
p2549
g5
(g6
(S'S9'
I0
I1
tRp2550
(I3
S'|'
NNNI9
I1
I0
tbS'ball_tree'
tRp2551
sa(dp2552
S'n_neighbors'
p2553
I11
sS'metric'
p2554
g5
(g6
(S'S9'
I0
I1
tRp2555
(I3
S'|'
NNNI9
I1
I0
tbS'euclidean'
tRp2556
sS'weights'
p2557
g5
(g6
(S'S7'
I0
I1
tRp2558
(I3
S'|'
NNNI7
I1
I0
tbS'uniform'
tRp2559
sS'leaf_size'
p2560
I39
sS'algorithm'
p2561
g5
(g6
(S'S9'
I0
I1
tRp2562
(I3
S'|'
NNNI9
I1
I0
tbS'ball_tree'
tRp2563
sa(dp2564
S'n_neighbors'
p2565
I12
sS'metric'
p2566
g5
(g6
(S'S9'
I0
I1
tRp2567
(I3
S'|'
NNNI9
I1
I0
tbS'manhattan'
tRp2568
sS'weights'
p2569
g5
(g6
(S'S7'
I0
I1
tRp2570
(I3
S'|'
NNNI7
I1
I0
tbS'uniform'
tRp2571
sS'leaf_size'
p2572
I42
sS'algorithm'
p2573
g5
(g6
(S'S9'
I0
I1
tRp2574
(I3
S'|'
NNNI9
I1
I0
tbS'ball_tree'
tRp2575
sa(dp2576
S'n_neighbors'
p2577
I11
sS'metric'
p2578
g5
(g6
(S'S9'
I0
I1
tRp2579
(I3
S'|'
NNNI9
I1
I0
tbS'manhattan'
tRp2580
sS'weights'
p2581
g5
(g6
(S'S7'
I0
I1
tRp2582
(I3
S'|'
NNNI7
I1
I0
tbS'uniform'
tRp2583
sS'leaf_size'
p2584
I45
sS'algorithm'
p2585
g5
(g6
(S'S9'
I0
I1
tRp2586
(I3
S'|'
NNNI9
I1
I0
tbS'ball_tree'
tRp2587
sa(dp2588
S'n_neighbors'
p2589
I4
sS'metric'
p2590
g5
(g6
(S'S9'
I0
I1
tRp2591
(I3
S'|'
NNNI9
I1
I0
tbS'manhattan'
tRp2592
sS'weights'
p2593
g5
(g6
(S'S7'
I0
I1
tRp2594
(I3
S'|'
NNNI7
I1
I0
tbS'uniform'
tRp2595
sS'leaf_size'
p2596
I17
sS'algorithm'
p2597
g5
(g6
(S'S9'
I0
I1
tRp2598
(I3
S'|'
NNNI9
I1
I0
tbS'ball_tree'
tRp2599
sa(dp2600
S'n_neighbors'
p2601
I6
sS'metric'
p2602
g5
(g6
(S'S9'
I0
I1
tRp2603
(I3
S'|'
NNNI9
I1
I0
tbS'manhattan'
tRp2604
sS'weights'
p2605
g5
(g6
(S'S7'
I0
I1
tRp2606
(I3
S'|'
NNNI7
I1
I0
tbS'uniform'
tRp2607
sS'leaf_size'
p2608
I27
sS'algorithm'
p2609
g5
(g6
(S'S9'
I0
I1
tRp2610
(I3
S'|'
NNNI9
I1
I0
tbS'ball_tree'
tRp2611
sa(dp2612
S'n_neighbors'
p2613
I4
sS'metric'
p2614
g5
(g6
(S'S9'
I0
I1
tRp2615
(I3
S'|'
NNNI9
I1
I0
tbS'manhattan'
tRp2616
sS'weights'
p2617
g5
(g6
(S'S7'
I0
I1
tRp2618
(I3
S'|'
NNNI7
I1
I0
tbS'uniform'
tRp2619
sS'leaf_size'
p2620
I22
sS'algorithm'
p2621
g5
(g6
(S'S9'
I0
I1
tRp2622
(I3
S'|'
NNNI9
I1
I0
tbS'ball_tree'
tRp2623
sa(dp2624
S'n_neighbors'
p2625
I9
sS'metric'
p2626
g5
(g6
(S'S9'
I0
I1
tRp2627
(I3
S'|'
NNNI9
I1
I0
tbS'manhattan'
tRp2628
sS'weights'
p2629
g5
(g6
(S'S7'
I0
I1
tRp2630
(I3
S'|'
NNNI7
I1
I0
tbS'uniform'
tRp2631
sS'leaf_size'
p2632
I36
sS'algorithm'
p2633
g5
(g6
(S'S9'
I0
I1
tRp2634
(I3
S'|'
NNNI9
I1
I0
tbS'ball_tree'
tRp2635
sa(dp2636
S'n_neighbors'
p2637
I1
sS'metric'
p2638
g5
(g6
(S'S9'
I0
I1
tRp2639
(I3
S'|'
NNNI9
I1
I0
tbS'manhattan'
tRp2640
sS'weights'
p2641
g5
(g6
(S'S7'
I0
I1
tRp2642
(I3
S'|'
NNNI7
I1
I0
tbS'uniform'
tRp2643
sS'leaf_size'
p2644
I39
sS'algorithm'
p2645
g5
(g6
(S'S9'
I0
I1
tRp2646
(I3
S'|'
NNNI9
I1
I0
tbS'ball_tree'
tRp2647
sa(dp2648
S'n_neighbors'
p2649
I12
sS'metric'
p2650
g5
(g6
(S'S9'
I0
I1
tRp2651
(I3
S'|'
NNNI9
I1
I0
tbS'manhattan'
tRp2652
sS'weights'
p2653
g5
(g6
(S'S7'
I0
I1
tRp2654
(I3
S'|'
NNNI7
I1
I0
tbS'uniform'
tRp2655
sS'leaf_size'
p2656
I16
sS'algorithm'
p2657
g5
(g6
(S'S9'
I0
I1
tRp2658
(I3
S'|'
NNNI9
I1
I0
tbS'ball_tree'
tRp2659
sa(dp2660
S'n_neighbors'
p2661
I8
sS'metric'
p2662
g5
(g6
(S'S9'
I0
I1
tRp2663
(I3
S'|'
NNNI9
I1
I0
tbS'manhattan'
tRp2664
sS'weights'
p2665
g5
(g6
(S'S7'
I0
I1
tRp2666
(I3
S'|'
NNNI7
I1
I0
tbS'uniform'
tRp2667
sS'leaf_size'
p2668
I16
sS'algorithm'
p2669
g5
(g6
(S'S9'
I0
I1
tRp2670
(I3
S'|'
NNNI9
I1
I0
tbS'ball_tree'
tRp2671
sa(dp2672
S'n_neighbors'
p2673
I5
sS'metric'
p2674
g5
(g6
(S'S9'
I0
I1
tRp2675
(I3
S'|'
NNNI9
I1
I0
tbS'manhattan'
tRp2676
sS'weights'
p2677
g5
(g6
(S'S7'
I0
I1
tRp2678
(I3
S'|'
NNNI7
I1
I0
tbS'uniform'
tRp2679
sS'leaf_size'
p2680
I43
sS'algorithm'
p2681
g5
(g6
(S'S9'
I0
I1
tRp2682
(I3
S'|'
NNNI9
I1
I0
tbS'ball_tree'
tRp2683
sa(dp2684
S'n_neighbors'
p2685
I7
sS'algorithm'
p2686
g5
(g6
(S'S9'
I0
I1
tRp2687
(I3
S'|'
NNNI9
I1
I0
tbS'ball_tree'
tRp2688
sS'metric'
p2689
g5
(g6
(S'S9'
I0
I1
tRp2690
(I3
S'|'
NNNI9
I1
I0
tbS'minkowski'
tRp2691
sS'p'
I4
sS'weights'
p2692
g5
(g6
(S'S7'
I0
I1
tRp2693
(I3
S'|'
NNNI7
I1
I0
tbS'uniform'
tRp2694
sS'leaf_size'
p2695
I44
sa(dp2696
S'n_neighbors'
p2697
I11
sS'algorithm'
p2698
g5
(g6
(S'S9'
I0
I1
tRp2699
(I3
S'|'
NNNI9
I1
I0
tbS'ball_tree'
tRp2700
sS'metric'
p2701
g5
(g6
(S'S9'
I0
I1
tRp2702
(I3
S'|'
NNNI9
I1
I0
tbS'minkowski'
tRp2703
sS'p'
I1
sS'weights'
p2704
g5
(g6
(S'S7'
I0
I1
tRp2705
(I3
S'|'
NNNI7
I1
I0
tbS'uniform'
tRp2706
sS'leaf_size'
p2707
I42
sa(dp2708
S'n_neighbors'
p2709
I2
sS'algorithm'
p2710
g5
(g6
(S'S9'
I0
I1
tRp2711
(I3
S'|'
NNNI9
I1
I0
tbS'ball_tree'
tRp2712
sS'metric'
p2713
g5
(g6
(S'S9'
I0
I1
tRp2714
(I3
S'|'
NNNI9
I1
I0
tbS'minkowski'
tRp2715
sS'p'
I4
sS'weights'
p2716
g5
(g6
(S'S7'
I0
I1
tRp2717
(I3
S'|'
NNNI7
I1
I0
tbS'uniform'
tRp2718
sS'leaf_size'
p2719
I38
sa(dp2720
S'n_neighbors'
p2721
I4
sS'algorithm'
p2722
g5
(g6
(S'S9'
I0
I1
tRp2723
(I3
S'|'
NNNI9
I1
I0
tbS'ball_tree'
tRp2724
sS'metric'
p2725
g5
(g6
(S'S9'
I0
I1
tRp2726
(I3
S'|'
NNNI9
I1
I0
tbS'minkowski'
tRp2727
sS'p'
I10
sS'weights'
p2728
g5
(g6
(S'S7'
I0
I1
tRp2729
(I3
S'|'
NNNI7
I1
I0
tbS'uniform'
tRp2730
sS'leaf_size'
p2731
I33
sa(dp2732
S'n_neighbors'
p2733
I5
sS'algorithm'
p2734
g5
(g6
(S'S9'
I0
I1
tRp2735
(I3
S'|'
NNNI9
I1
I0
tbS'ball_tree'
tRp2736
sS'metric'
p2737
g5
(g6
(S'S9'
I0
I1
tRp2738
(I3
S'|'
NNNI9
I1
I0
tbS'minkowski'
tRp2739
sS'p'
I4
sS'weights'
p2740
g5
(g6
(S'S7'
I0
I1
tRp2741
(I3
S'|'
NNNI7
I1
I0
tbS'uniform'
tRp2742
sS'leaf_size'
p2743
I31
sa(dp2744
S'n_neighbors'
p2745
I6
sS'algorithm'
p2746
g5
(g6
(S'S9'
I0
I1
tRp2747
(I3
S'|'
NNNI9
I1
I0
tbS'ball_tree'
tRp2748
sS'metric'
p2749
g5
(g6
(S'S9'
I0
I1
tRp2750
(I3
S'|'
NNNI9
I1
I0
tbS'minkowski'
tRp2751
sS'p'
I7
sS'weights'
p2752
g5
(g6
(S'S7'
I0
I1
tRp2753
(I3
S'|'
NNNI7
I1
I0
tbS'uniform'
tRp2754
sS'leaf_size'
p2755
I36
sa(dp2756
S'n_neighbors'
p2757
I7
sS'algorithm'
p2758
g5
(g6
(S'S9'
I0
I1
tRp2759
(I3
S'|'
NNNI9
I1
I0
tbS'ball_tree'
tRp2760
sS'metric'
p2761
g5
(g6
(S'S9'
I0
I1
tRp2762
(I3
S'|'
NNNI9
I1
I0
tbS'minkowski'
tRp2763
sS'p'
I9
sS'weights'
p2764
g5
(g6
(S'S7'
I0
I1
tRp2765
(I3
S'|'
NNNI7
I1
I0
tbS'uniform'
tRp2766
sS'leaf_size'
p2767
I32
sa(dp2768
S'n_neighbors'
p2769
I8
sS'algorithm'
p2770
g5
(g6
(S'S9'
I0
I1
tRp2771
(I3
S'|'
NNNI9
I1
I0
tbS'ball_tree'
tRp2772
sS'metric'
p2773
g5
(g6
(S'S9'
I0
I1
tRp2774
(I3
S'|'
NNNI9
I1
I0
tbS'minkowski'
tRp2775
sS'p'
I4
sS'weights'
p2776
g5
(g6
(S'S7'
I0
I1
tRp2777
(I3
S'|'
NNNI7
I1
I0
tbS'uniform'
tRp2778
sS'leaf_size'
p2779
I28
sa(dp2780
S'n_neighbors'
p2781
I5
sS'algorithm'
p2782
g5
(g6
(S'S9'
I0
I1
tRp2783
(I3
S'|'
NNNI9
I1
I0
tbS'ball_tree'
tRp2784
sS'metric'
p2785
g5
(g6
(S'S9'
I0
I1
tRp2786
(I3
S'|'
NNNI9
I1
I0
tbS'minkowski'
tRp2787
sS'p'
I20
sS'weights'
p2788
g5
(g6
(S'S7'
I0
I1
tRp2789
(I3
S'|'
NNNI7
I1
I0
tbS'uniform'
tRp2790
sS'leaf_size'
p2791
I19
sa(dp2792
S'n_neighbors'
p2793
I2
sS'algorithm'
p2794
g5
(g6
(S'S9'
I0
I1
tRp2795
(I3
S'|'
NNNI9
I1
I0
tbS'ball_tree'
tRp2796
sS'metric'
p2797
g5
(g6
(S'S9'
I0
I1
tRp2798
(I3
S'|'
NNNI9
I1
I0
tbS'minkowski'
tRp2799
sS'p'
I2
sS'weights'
p2800
g5
(g6
(S'S7'
I0
I1
tRp2801
(I3
S'|'
NNNI7
I1
I0
tbS'uniform'
tRp2802
sS'leaf_size'
p2803
I43
sa.